
i2c.elf:     file format elf32-littlearm


Disassembly of section .text:

00000000 <__isr_vector>:
   0:	20004000 	andcs	r4, r0, r0
   4:	00000101 	andeq	r0, r0, r1, lsl #2
   8:	0000016d 	andeq	r0, r0, sp, ror #2
   c:	00000179 	andeq	r0, r0, r9, ror r1
  10:	00000185 	andeq	r0, r0, r5, lsl #3
  14:	00000191 	muleq	r0, r1, r1
  18:	0000019d 	muleq	r0, sp, r1
	...
  2c:	000001a9 	andeq	r0, r0, r9, lsr #3
  30:	000001b5 			; <UNDEFINED> instruction: 0x000001b5
  34:	00000000 	andeq	r0, r0, r0
  38:	000001c1 	andeq	r0, r0, r1, asr #3
  3c:	000001cd 	andeq	r0, r0, sp, asr #3
  40:	00000359 	andeq	r0, r0, r9, asr r3
	...

00000100 <Reset_Handler>:
 100:	4811      	ldr	r0, [pc, #68]	; (148 <Hard_Fault_Handler+0xc>)
 102:	4912      	ldr	r1, [pc, #72]	; (14c <Hard_Fault_Handler+0x10>)
 104:	468d      	mov	sp, r1
 106:	4601      	mov	r1, r0
 108:	4602      	mov	r2, r0
 10a:	4604      	mov	r4, r0
 10c:	4605      	mov	r5, r0
 10e:	4606      	mov	r6, r0
 110:	4607      	mov	r7, r0
 112:	4680      	mov	r8, r0
 114:	4681      	mov	r9, r0
 116:	480e      	ldr	r0, [pc, #56]	; (150 <Hard_Fault_Handler+0x14>)
 118:	490e      	ldr	r1, [pc, #56]	; (154 <Hard_Fault_Handler+0x18>)
 11a:	4a0f      	ldr	r2, [pc, #60]	; (158 <Hard_Fault_Handler+0x1c>)
 11c:	4291      	cmp	r1, r2
 11e:	d205      	bcs.n	12c <end_init>

00000120 <loop_init>:
 120:	6803      	ldr	r3, [r0, #0]
 122:	600b      	str	r3, [r1, #0]
 124:	3001      	adds	r0, #1
 126:	3101      	adds	r1, #1
 128:	4291      	cmp	r1, r2
 12a:	d3f9      	bcc.n	120 <loop_init>

0000012c <end_init>:
 12c:	480b      	ldr	r0, [pc, #44]	; (15c <Hard_Fault_Handler+0x20>)
 12e:	4700      	bx	r0
 130:	490b      	ldr	r1, [pc, #44]	; (160 <Hard_Fault_Handler+0x24>)
 132:	6008      	str	r0, [r1, #0]
 134:	490b      	ldr	r1, [pc, #44]	; (164 <Hard_Fault_Handler+0x28>)
 136:	480c      	ldr	r0, [pc, #48]	; (168 <Hard_Fault_Handler+0x2c>)
 138:	6008      	str	r0, [r1, #0]
 13a:	e7fe      	b.n	13a <end_init+0xe>

0000013c <Hard_Fault_Handler>:
 13c:	4908      	ldr	r1, [pc, #32]	; (160 <Hard_Fault_Handler+0x24>)
 13e:	6008      	str	r0, [r1, #0]
 140:	4908      	ldr	r1, [pc, #32]	; (164 <Hard_Fault_Handler+0x28>)
 142:	4809      	ldr	r0, [pc, #36]	; (168 <Hard_Fault_Handler+0x2c>)
 144:	6008      	str	r0, [r1, #0]
 146:	e7fe      	b.n	146 <Hard_Fault_Handler+0xa>
 148:	00000000 	andeq	r0, r0, r0
 14c:	20004000 	andcs	r4, r0, r0
 150:	00000960 	andeq	r0, r0, r0, ror #18
 154:	20000000 	andcs	r0, r0, r0
 158:	20000000 	andcs	r0, r0, r0
 15c:	000008a5 	andeq	r0, r0, r5, lsr #17
 160:	80000004 	andhi	r0, r0, r4
 164:	80000000 	andhi	r0, r0, r0
 168:	00000009 	andeq	r0, r0, r9

0000016c <NMI_Handler>:
 16c:	497d      	ldr	r1, [pc, #500]	; (364 <UART_Handler+0xc>)
 16e:	6008      	str	r0, [r1, #0]
 170:	497d      	ldr	r1, [pc, #500]	; (368 <UART_Handler+0x10>)
 172:	487e      	ldr	r0, [pc, #504]	; (36c <UART_Handler+0x14>)
 174:	6008      	str	r0, [r1, #0]
 176:	e7fe      	b.n	176 <NMI_Handler+0xa>

00000178 <HardFault_Handler>:
 178:	497a      	ldr	r1, [pc, #488]	; (364 <UART_Handler+0xc>)
 17a:	6008      	str	r0, [r1, #0]
 17c:	497a      	ldr	r1, [pc, #488]	; (368 <UART_Handler+0x10>)
 17e:	487b      	ldr	r0, [pc, #492]	; (36c <UART_Handler+0x14>)
 180:	6008      	str	r0, [r1, #0]
 182:	e7fe      	b.n	182 <HardFault_Handler+0xa>

00000184 <MemManage_Handler>:
 184:	4977      	ldr	r1, [pc, #476]	; (364 <UART_Handler+0xc>)
 186:	6008      	str	r0, [r1, #0]
 188:	4977      	ldr	r1, [pc, #476]	; (368 <UART_Handler+0x10>)
 18a:	4878      	ldr	r0, [pc, #480]	; (36c <UART_Handler+0x14>)
 18c:	6008      	str	r0, [r1, #0]
 18e:	e7fe      	b.n	18e <MemManage_Handler+0xa>

00000190 <BusFault_Handler>:
 190:	4974      	ldr	r1, [pc, #464]	; (364 <UART_Handler+0xc>)
 192:	6008      	str	r0, [r1, #0]
 194:	4974      	ldr	r1, [pc, #464]	; (368 <UART_Handler+0x10>)
 196:	4875      	ldr	r0, [pc, #468]	; (36c <UART_Handler+0x14>)
 198:	6008      	str	r0, [r1, #0]
 19a:	e7fe      	b.n	19a <BusFault_Handler+0xa>

0000019c <UsageFault_Handler>:
 19c:	4971      	ldr	r1, [pc, #452]	; (364 <UART_Handler+0xc>)
 19e:	6008      	str	r0, [r1, #0]
 1a0:	4971      	ldr	r1, [pc, #452]	; (368 <UART_Handler+0x10>)
 1a2:	4872      	ldr	r0, [pc, #456]	; (36c <UART_Handler+0x14>)
 1a4:	6008      	str	r0, [r1, #0]
 1a6:	e7fe      	b.n	1a6 <UsageFault_Handler+0xa>

000001a8 <SVC_Handler>:
 1a8:	496e      	ldr	r1, [pc, #440]	; (364 <UART_Handler+0xc>)
 1aa:	6008      	str	r0, [r1, #0]
 1ac:	496e      	ldr	r1, [pc, #440]	; (368 <UART_Handler+0x10>)
 1ae:	486f      	ldr	r0, [pc, #444]	; (36c <UART_Handler+0x14>)
 1b0:	6008      	str	r0, [r1, #0]
 1b2:	e7fe      	b.n	1b2 <SVC_Handler+0xa>

000001b4 <DebugMon_Handler>:
 1b4:	496b      	ldr	r1, [pc, #428]	; (364 <UART_Handler+0xc>)
 1b6:	6008      	str	r0, [r1, #0]
 1b8:	496b      	ldr	r1, [pc, #428]	; (368 <UART_Handler+0x10>)
 1ba:	486c      	ldr	r0, [pc, #432]	; (36c <UART_Handler+0x14>)
 1bc:	6008      	str	r0, [r1, #0]
 1be:	e7fe      	b.n	1be <DebugMon_Handler+0xa>

000001c0 <PendSV_Handler>:
 1c0:	4968      	ldr	r1, [pc, #416]	; (364 <UART_Handler+0xc>)
 1c2:	6008      	str	r0, [r1, #0]
 1c4:	4968      	ldr	r1, [pc, #416]	; (368 <UART_Handler+0x10>)
 1c6:	4869      	ldr	r0, [pc, #420]	; (36c <UART_Handler+0x14>)
 1c8:	6008      	str	r0, [r1, #0]
 1ca:	e7fe      	b.n	1ca <PendSV_Handler+0xa>

000001cc <SysTick_Handler>:
 1cc:	4965      	ldr	r1, [pc, #404]	; (364 <UART_Handler+0xc>)
 1ce:	6008      	str	r0, [r1, #0]
 1d0:	4965      	ldr	r1, [pc, #404]	; (368 <UART_Handler+0x10>)
 1d2:	4866      	ldr	r0, [pc, #408]	; (36c <UART_Handler+0x14>)
 1d4:	6008      	str	r0, [r1, #0]
 1d6:	e7fe      	b.n	1d6 <SysTick_Handler+0xa>

000001d8 <UARTRX0_Handler>:
 1d8:	4962      	ldr	r1, [pc, #392]	; (364 <UART_Handler+0xc>)
 1da:	6008      	str	r0, [r1, #0]
 1dc:	4962      	ldr	r1, [pc, #392]	; (368 <UART_Handler+0x10>)
 1de:	4863      	ldr	r0, [pc, #396]	; (36c <UART_Handler+0x14>)
 1e0:	6008      	str	r0, [r1, #0]
 1e2:	e7fe      	b.n	1e2 <UARTRX0_Handler+0xa>

000001e4 <UARTTX0_Handler>:
 1e4:	495f      	ldr	r1, [pc, #380]	; (364 <UART_Handler+0xc>)
 1e6:	6008      	str	r0, [r1, #0]
 1e8:	495f      	ldr	r1, [pc, #380]	; (368 <UART_Handler+0x10>)
 1ea:	4860      	ldr	r0, [pc, #384]	; (36c <UART_Handler+0x14>)
 1ec:	6008      	str	r0, [r1, #0]
 1ee:	e7fe      	b.n	1ee <UARTTX0_Handler+0xa>

000001f0 <UARTRX1_Handler>:
 1f0:	495c      	ldr	r1, [pc, #368]	; (364 <UART_Handler+0xc>)
 1f2:	6008      	str	r0, [r1, #0]
 1f4:	495c      	ldr	r1, [pc, #368]	; (368 <UART_Handler+0x10>)
 1f6:	485d      	ldr	r0, [pc, #372]	; (36c <UART_Handler+0x14>)
 1f8:	6008      	str	r0, [r1, #0]
 1fa:	e7fe      	b.n	1fa <UARTRX1_Handler+0xa>

000001fc <UARTTX1_Handler>:
 1fc:	4959      	ldr	r1, [pc, #356]	; (364 <UART_Handler+0xc>)
 1fe:	6008      	str	r0, [r1, #0]
 200:	4959      	ldr	r1, [pc, #356]	; (368 <UART_Handler+0x10>)
 202:	485a      	ldr	r0, [pc, #360]	; (36c <UART_Handler+0x14>)
 204:	6008      	str	r0, [r1, #0]
 206:	e7fe      	b.n	206 <UARTTX1_Handler+0xa>

00000208 <UARTRX2_Handler>:
 208:	4956      	ldr	r1, [pc, #344]	; (364 <UART_Handler+0xc>)
 20a:	6008      	str	r0, [r1, #0]
 20c:	4956      	ldr	r1, [pc, #344]	; (368 <UART_Handler+0x10>)
 20e:	4857      	ldr	r0, [pc, #348]	; (36c <UART_Handler+0x14>)
 210:	6008      	str	r0, [r1, #0]
 212:	e7fe      	b.n	212 <UARTRX2_Handler+0xa>

00000214 <UARTTX2_Handler>:
 214:	4953      	ldr	r1, [pc, #332]	; (364 <UART_Handler+0xc>)
 216:	6008      	str	r0, [r1, #0]
 218:	4953      	ldr	r1, [pc, #332]	; (368 <UART_Handler+0x10>)
 21a:	4854      	ldr	r0, [pc, #336]	; (36c <UART_Handler+0x14>)
 21c:	6008      	str	r0, [r1, #0]
 21e:	e7fe      	b.n	21e <UARTTX2_Handler+0xa>

00000220 <PORT0_COMB_Handler>:
 220:	4950      	ldr	r1, [pc, #320]	; (364 <UART_Handler+0xc>)
 222:	6008      	str	r0, [r1, #0]
 224:	4950      	ldr	r1, [pc, #320]	; (368 <UART_Handler+0x10>)
 226:	4851      	ldr	r0, [pc, #324]	; (36c <UART_Handler+0x14>)
 228:	6008      	str	r0, [r1, #0]
 22a:	e7fe      	b.n	22a <PORT0_COMB_Handler+0xa>

0000022c <PORT1_COMB_Handler>:
 22c:	494d      	ldr	r1, [pc, #308]	; (364 <UART_Handler+0xc>)
 22e:	6008      	str	r0, [r1, #0]
 230:	494d      	ldr	r1, [pc, #308]	; (368 <UART_Handler+0x10>)
 232:	484e      	ldr	r0, [pc, #312]	; (36c <UART_Handler+0x14>)
 234:	6008      	str	r0, [r1, #0]
 236:	e7fe      	b.n	236 <PORT1_COMB_Handler+0xa>

00000238 <TIMER0_Handler>:
 238:	494a      	ldr	r1, [pc, #296]	; (364 <UART_Handler+0xc>)
 23a:	6008      	str	r0, [r1, #0]
 23c:	494a      	ldr	r1, [pc, #296]	; (368 <UART_Handler+0x10>)
 23e:	484b      	ldr	r0, [pc, #300]	; (36c <UART_Handler+0x14>)
 240:	6008      	str	r0, [r1, #0]
 242:	e7fe      	b.n	242 <TIMER0_Handler+0xa>

00000244 <TIMER1_Handler>:
 244:	4947      	ldr	r1, [pc, #284]	; (364 <UART_Handler+0xc>)
 246:	6008      	str	r0, [r1, #0]
 248:	4947      	ldr	r1, [pc, #284]	; (368 <UART_Handler+0x10>)
 24a:	4848      	ldr	r0, [pc, #288]	; (36c <UART_Handler+0x14>)
 24c:	6008      	str	r0, [r1, #0]
 24e:	e7fe      	b.n	24e <TIMER1_Handler+0xa>

00000250 <DUALTIMER_HANDLER>:
 250:	4944      	ldr	r1, [pc, #272]	; (364 <UART_Handler+0xc>)
 252:	6008      	str	r0, [r1, #0]
 254:	4944      	ldr	r1, [pc, #272]	; (368 <UART_Handler+0x10>)
 256:	4845      	ldr	r0, [pc, #276]	; (36c <UART_Handler+0x14>)
 258:	6008      	str	r0, [r1, #0]
 25a:	e7fe      	b.n	25a <DUALTIMER_HANDLER+0xa>

0000025c <SPI_ALL_Handler>:
 25c:	4941      	ldr	r1, [pc, #260]	; (364 <UART_Handler+0xc>)
 25e:	6008      	str	r0, [r1, #0]
 260:	4941      	ldr	r1, [pc, #260]	; (368 <UART_Handler+0x10>)
 262:	4842      	ldr	r0, [pc, #264]	; (36c <UART_Handler+0x14>)
 264:	6008      	str	r0, [r1, #0]
 266:	e7fe      	b.n	266 <SPI_ALL_Handler+0xa>

00000268 <UARTOVF_Handler>:
 268:	493e      	ldr	r1, [pc, #248]	; (364 <UART_Handler+0xc>)
 26a:	6008      	str	r0, [r1, #0]
 26c:	493e      	ldr	r1, [pc, #248]	; (368 <UART_Handler+0x10>)
 26e:	483f      	ldr	r0, [pc, #252]	; (36c <UART_Handler+0x14>)
 270:	6008      	str	r0, [r1, #0]
 272:	e7fe      	b.n	272 <UARTOVF_Handler+0xa>

00000274 <ETHERNET_Handler>:
 274:	493b      	ldr	r1, [pc, #236]	; (364 <UART_Handler+0xc>)
 276:	6008      	str	r0, [r1, #0]
 278:	493b      	ldr	r1, [pc, #236]	; (368 <UART_Handler+0x10>)
 27a:	483c      	ldr	r0, [pc, #240]	; (36c <UART_Handler+0x14>)
 27c:	6008      	str	r0, [r1, #0]
 27e:	e7fe      	b.n	27e <ETHERNET_Handler+0xa>

00000280 <I2S_Handler>:
 280:	4938      	ldr	r1, [pc, #224]	; (364 <UART_Handler+0xc>)
 282:	6008      	str	r0, [r1, #0]
 284:	4938      	ldr	r1, [pc, #224]	; (368 <UART_Handler+0x10>)
 286:	4839      	ldr	r0, [pc, #228]	; (36c <UART_Handler+0x14>)
 288:	6008      	str	r0, [r1, #0]
 28a:	e7fe      	b.n	28a <I2S_Handler+0xa>

0000028c <DMA_Handler>:
 28c:	4935      	ldr	r1, [pc, #212]	; (364 <UART_Handler+0xc>)
 28e:	6008      	str	r0, [r1, #0]
 290:	4935      	ldr	r1, [pc, #212]	; (368 <UART_Handler+0x10>)
 292:	4836      	ldr	r0, [pc, #216]	; (36c <UART_Handler+0x14>)
 294:	6008      	str	r0, [r1, #0]
 296:	e7fe      	b.n	296 <DMA_Handler+0xa>

00000298 <PORT0_0_Handler>:
 298:	4932      	ldr	r1, [pc, #200]	; (364 <UART_Handler+0xc>)
 29a:	6008      	str	r0, [r1, #0]
 29c:	4932      	ldr	r1, [pc, #200]	; (368 <UART_Handler+0x10>)
 29e:	4833      	ldr	r0, [pc, #204]	; (36c <UART_Handler+0x14>)
 2a0:	6008      	str	r0, [r1, #0]
 2a2:	e7fe      	b.n	2a2 <PORT0_0_Handler+0xa>

000002a4 <PORT0_1_Handler>:
 2a4:	492f      	ldr	r1, [pc, #188]	; (364 <UART_Handler+0xc>)
 2a6:	6008      	str	r0, [r1, #0]
 2a8:	492f      	ldr	r1, [pc, #188]	; (368 <UART_Handler+0x10>)
 2aa:	4830      	ldr	r0, [pc, #192]	; (36c <UART_Handler+0x14>)
 2ac:	6008      	str	r0, [r1, #0]
 2ae:	e7fe      	b.n	2ae <PORT0_1_Handler+0xa>

000002b0 <PORT0_2_Handler>:
 2b0:	492c      	ldr	r1, [pc, #176]	; (364 <UART_Handler+0xc>)
 2b2:	6008      	str	r0, [r1, #0]
 2b4:	492c      	ldr	r1, [pc, #176]	; (368 <UART_Handler+0x10>)
 2b6:	482d      	ldr	r0, [pc, #180]	; (36c <UART_Handler+0x14>)
 2b8:	6008      	str	r0, [r1, #0]
 2ba:	e7fe      	b.n	2ba <PORT0_2_Handler+0xa>

000002bc <PORT0_3_Handler>:
 2bc:	4929      	ldr	r1, [pc, #164]	; (364 <UART_Handler+0xc>)
 2be:	6008      	str	r0, [r1, #0]
 2c0:	4929      	ldr	r1, [pc, #164]	; (368 <UART_Handler+0x10>)
 2c2:	482a      	ldr	r0, [pc, #168]	; (36c <UART_Handler+0x14>)
 2c4:	6008      	str	r0, [r1, #0]
 2c6:	e7fe      	b.n	2c6 <PORT0_3_Handler+0xa>

000002c8 <PORT0_4_Handler>:
 2c8:	4926      	ldr	r1, [pc, #152]	; (364 <UART_Handler+0xc>)
 2ca:	6008      	str	r0, [r1, #0]
 2cc:	4926      	ldr	r1, [pc, #152]	; (368 <UART_Handler+0x10>)
 2ce:	4827      	ldr	r0, [pc, #156]	; (36c <UART_Handler+0x14>)
 2d0:	6008      	str	r0, [r1, #0]
 2d2:	e7fe      	b.n	2d2 <PORT0_4_Handler+0xa>

000002d4 <PORT0_5_Handler>:
 2d4:	4923      	ldr	r1, [pc, #140]	; (364 <UART_Handler+0xc>)
 2d6:	6008      	str	r0, [r1, #0]
 2d8:	4923      	ldr	r1, [pc, #140]	; (368 <UART_Handler+0x10>)
 2da:	4824      	ldr	r0, [pc, #144]	; (36c <UART_Handler+0x14>)
 2dc:	6008      	str	r0, [r1, #0]
 2de:	e7fe      	b.n	2de <PORT0_5_Handler+0xa>

000002e0 <PORT0_6_Handler>:
 2e0:	4920      	ldr	r1, [pc, #128]	; (364 <UART_Handler+0xc>)
 2e2:	6008      	str	r0, [r1, #0]
 2e4:	4920      	ldr	r1, [pc, #128]	; (368 <UART_Handler+0x10>)
 2e6:	4821      	ldr	r0, [pc, #132]	; (36c <UART_Handler+0x14>)
 2e8:	6008      	str	r0, [r1, #0]
 2ea:	e7fe      	b.n	2ea <PORT0_6_Handler+0xa>

000002ec <PORT0_7_Handler>:
 2ec:	491d      	ldr	r1, [pc, #116]	; (364 <UART_Handler+0xc>)
 2ee:	6008      	str	r0, [r1, #0]
 2f0:	491d      	ldr	r1, [pc, #116]	; (368 <UART_Handler+0x10>)
 2f2:	481e      	ldr	r0, [pc, #120]	; (36c <UART_Handler+0x14>)
 2f4:	6008      	str	r0, [r1, #0]
 2f6:	e7fe      	b.n	2f6 <PORT0_7_Handler+0xa>

000002f8 <PORT0_8_Handler>:
 2f8:	491a      	ldr	r1, [pc, #104]	; (364 <UART_Handler+0xc>)
 2fa:	6008      	str	r0, [r1, #0]
 2fc:	491a      	ldr	r1, [pc, #104]	; (368 <UART_Handler+0x10>)
 2fe:	481b      	ldr	r0, [pc, #108]	; (36c <UART_Handler+0x14>)
 300:	6008      	str	r0, [r1, #0]
 302:	e7fe      	b.n	302 <PORT0_8_Handler+0xa>

00000304 <PORT0_9_Handler>:
 304:	4917      	ldr	r1, [pc, #92]	; (364 <UART_Handler+0xc>)
 306:	6008      	str	r0, [r1, #0]
 308:	4917      	ldr	r1, [pc, #92]	; (368 <UART_Handler+0x10>)
 30a:	4818      	ldr	r0, [pc, #96]	; (36c <UART_Handler+0x14>)
 30c:	6008      	str	r0, [r1, #0]
 30e:	e7fe      	b.n	30e <PORT0_9_Handler+0xa>

00000310 <PORT0_10_Handler>:
 310:	4914      	ldr	r1, [pc, #80]	; (364 <UART_Handler+0xc>)
 312:	6008      	str	r0, [r1, #0]
 314:	4914      	ldr	r1, [pc, #80]	; (368 <UART_Handler+0x10>)
 316:	4815      	ldr	r0, [pc, #84]	; (36c <UART_Handler+0x14>)
 318:	6008      	str	r0, [r1, #0]
 31a:	e7fe      	b.n	31a <PORT0_10_Handler+0xa>

0000031c <PORT0_11_Handler>:
 31c:	4911      	ldr	r1, [pc, #68]	; (364 <UART_Handler+0xc>)
 31e:	6008      	str	r0, [r1, #0]
 320:	4911      	ldr	r1, [pc, #68]	; (368 <UART_Handler+0x10>)
 322:	4812      	ldr	r0, [pc, #72]	; (36c <UART_Handler+0x14>)
 324:	6008      	str	r0, [r1, #0]
 326:	e7fe      	b.n	326 <PORT0_11_Handler+0xa>

00000328 <PORT0_12_Handler>:
 328:	490e      	ldr	r1, [pc, #56]	; (364 <UART_Handler+0xc>)
 32a:	6008      	str	r0, [r1, #0]
 32c:	490e      	ldr	r1, [pc, #56]	; (368 <UART_Handler+0x10>)
 32e:	480f      	ldr	r0, [pc, #60]	; (36c <UART_Handler+0x14>)
 330:	6008      	str	r0, [r1, #0]
 332:	e7fe      	b.n	332 <PORT0_12_Handler+0xa>

00000334 <PORT0_13_Handler>:
 334:	490b      	ldr	r1, [pc, #44]	; (364 <UART_Handler+0xc>)
 336:	6008      	str	r0, [r1, #0]
 338:	490b      	ldr	r1, [pc, #44]	; (368 <UART_Handler+0x10>)
 33a:	480c      	ldr	r0, [pc, #48]	; (36c <UART_Handler+0x14>)
 33c:	6008      	str	r0, [r1, #0]
 33e:	e7fe      	b.n	33e <PORT0_13_Handler+0xa>

00000340 <PORT0_14_Handler>:
 340:	4908      	ldr	r1, [pc, #32]	; (364 <UART_Handler+0xc>)
 342:	6008      	str	r0, [r1, #0]
 344:	4908      	ldr	r1, [pc, #32]	; (368 <UART_Handler+0x10>)
 346:	4809      	ldr	r0, [pc, #36]	; (36c <UART_Handler+0x14>)
 348:	6008      	str	r0, [r1, #0]
 34a:	e7fe      	b.n	34a <PORT0_14_Handler+0xa>

0000034c <PORT0_15_Handler>:
 34c:	4905      	ldr	r1, [pc, #20]	; (364 <UART_Handler+0xc>)
 34e:	6008      	str	r0, [r1, #0]
 350:	4905      	ldr	r1, [pc, #20]	; (368 <UART_Handler+0x10>)
 352:	4806      	ldr	r0, [pc, #24]	; (36c <UART_Handler+0x14>)
 354:	6008      	str	r0, [r1, #0]
 356:	e7fe      	b.n	356 <PORT0_15_Handler+0xa>

00000358 <UART_Handler>:
 358:	4902      	ldr	r1, [pc, #8]	; (364 <UART_Handler+0xc>)
 35a:	6008      	str	r0, [r1, #0]
 35c:	4902      	ldr	r1, [pc, #8]	; (368 <UART_Handler+0x10>)
 35e:	4803      	ldr	r0, [pc, #12]	; (36c <UART_Handler+0x14>)
 360:	6008      	str	r0, [r1, #0]
 362:	e7fe      	b.n	362 <UART_Handler+0xa>
 364:	80000004 	andhi	r0, r0, r4
 368:	80000000 	andhi	r0, r0, r0
 36c:	00000009 	andeq	r0, r0, r9

00000370 <putchar>:
 370:	b2c0      	uxtb	r0, r0
 372:	4b01      	ldr	r3, [pc, #4]	; (378 <putchar+0x8>)
 374:	7018      	strb	r0, [r3, #0]
 376:	4770      	bx	lr
 378:	40300000 	eorsmi	r0, r0, r0

0000037c <print>:
 37c:	7803      	ldrb	r3, [r0, #0]
 37e:	2b00      	cmp	r3, #0
 380:	d005      	beq.n	38e <print+0x12>
 382:	4a03      	ldr	r2, [pc, #12]	; (390 <print+0x14>)
 384:	3001      	adds	r0, #1
 386:	7013      	strb	r3, [r2, #0]
 388:	7803      	ldrb	r3, [r0, #0]
 38a:	2b00      	cmp	r3, #0
 38c:	d1fa      	bne.n	384 <print+0x8>
 38e:	4770      	bx	lr
 390:	40300000 	eorsmi	r0, r0, r0

00000394 <print_hex>:
 394:	b530      	push	{r4, r5, lr}
 396:	3901      	subs	r1, #1
 398:	d40b      	bmi.n	3b2 <print_hex+0x1e>
 39a:	0089      	lsls	r1, r1, #2
 39c:	4d05      	ldr	r5, [pc, #20]	; (3b4 <print_hex+0x20>)
 39e:	240f      	movs	r4, #15
 3a0:	4a05      	ldr	r2, [pc, #20]	; (3b8 <print_hex+0x24>)
 3a2:	0003      	movs	r3, r0
 3a4:	40cb      	lsrs	r3, r1
 3a6:	4023      	ands	r3, r4
 3a8:	5ceb      	ldrb	r3, [r5, r3]
 3aa:	7013      	strb	r3, [r2, #0]
 3ac:	3904      	subs	r1, #4
 3ae:	1d0b      	adds	r3, r1, #4
 3b0:	d1f7      	bne.n	3a2 <print_hex+0xe>
 3b2:	bd30      	pop	{r4, r5, pc}
 3b4:	00000924 	andeq	r0, r0, r4, lsr #18
 3b8:	40300000 	eorsmi	r0, r0, r0

000003bc <print_dec>:
 3bc:	b510      	push	{r4, lr}
 3be:	4b71      	ldr	r3, [pc, #452]	; (584 <print_dec+0x1c8>)
 3c0:	4298      	cmp	r0, r3
 3c2:	d829      	bhi.n	418 <print_dec+0x5c>
 3c4:	4b70      	ldr	r3, [pc, #448]	; (588 <print_dec+0x1cc>)
 3c6:	4298      	cmp	r0, r3
 3c8:	d92a      	bls.n	420 <print_dec+0x64>
 3ca:	4b70      	ldr	r3, [pc, #448]	; (58c <print_dec+0x1d0>)
 3cc:	2231      	movs	r2, #49	; 0x31
 3ce:	701a      	strb	r2, [r3, #0]
 3d0:	4b6f      	ldr	r3, [pc, #444]	; (590 <print_dec+0x1d4>)
 3d2:	469c      	mov	ip, r3
 3d4:	4460      	add	r0, ip
 3d6:	4b6f      	ldr	r3, [pc, #444]	; (594 <print_dec+0x1d8>)
 3d8:	4298      	cmp	r0, r3
 3da:	d825      	bhi.n	428 <print_dec+0x6c>
 3dc:	4b6e      	ldr	r3, [pc, #440]	; (598 <print_dec+0x1dc>)
 3de:	4298      	cmp	r0, r3
 3e0:	d83f      	bhi.n	462 <print_dec+0xa6>
 3e2:	4b6e      	ldr	r3, [pc, #440]	; (59c <print_dec+0x1e0>)
 3e4:	4298      	cmp	r0, r3
 3e6:	d843      	bhi.n	470 <print_dec+0xb4>
 3e8:	4b6d      	ldr	r3, [pc, #436]	; (5a0 <print_dec+0x1e4>)
 3ea:	4298      	cmp	r0, r3
 3ec:	d847      	bhi.n	47e <print_dec+0xc2>
 3ee:	23f4      	movs	r3, #244	; 0xf4
 3f0:	33ff      	adds	r3, #255	; 0xff
 3f2:	4298      	cmp	r0, r3
 3f4:	d84a      	bhi.n	48c <print_dec+0xd0>
 3f6:	2390      	movs	r3, #144	; 0x90
 3f8:	33ff      	adds	r3, #255	; 0xff
 3fa:	4298      	cmp	r0, r3
 3fc:	d84c      	bhi.n	498 <print_dec+0xdc>
 3fe:	232c      	movs	r3, #44	; 0x2c
 400:	33ff      	adds	r3, #255	; 0xff
 402:	4298      	cmp	r0, r3
 404:	d84e      	bhi.n	4a4 <print_dec+0xe8>
 406:	28c7      	cmp	r0, #199	; 0xc7
 408:	d852      	bhi.n	4b0 <print_dec+0xf4>
 40a:	2863      	cmp	r0, #99	; 0x63
 40c:	d955      	bls.n	4ba <print_dec+0xfe>
 40e:	4b5f      	ldr	r3, [pc, #380]	; (58c <print_dec+0x1d0>)
 410:	2231      	movs	r2, #49	; 0x31
 412:	701a      	strb	r2, [r3, #0]
 414:	3864      	subs	r0, #100	; 0x64
 416:	e00d      	b.n	434 <print_dec+0x78>
 418:	4862      	ldr	r0, [pc, #392]	; (5a4 <print_dec+0x1e8>)
 41a:	f7ff ffaf 	bl	37c <print>
 41e:	e090      	b.n	542 <print_dec+0x186>
 420:	4b5a      	ldr	r3, [pc, #360]	; (58c <print_dec+0x1d0>)
 422:	2220      	movs	r2, #32
 424:	701a      	strb	r2, [r3, #0]
 426:	e7d6      	b.n	3d6 <print_dec+0x1a>
 428:	4b58      	ldr	r3, [pc, #352]	; (58c <print_dec+0x1d0>)
 42a:	2239      	movs	r2, #57	; 0x39
 42c:	701a      	strb	r2, [r3, #0]
 42e:	4b5e      	ldr	r3, [pc, #376]	; (5a8 <print_dec+0x1ec>)
 430:	469c      	mov	ip, r3
 432:	4460      	add	r0, ip
 434:	2859      	cmp	r0, #89	; 0x59
 436:	d844      	bhi.n	4c2 <print_dec+0x106>
 438:	284f      	cmp	r0, #79	; 0x4f
 43a:	d858      	bhi.n	4ee <print_dec+0x132>
 43c:	2845      	cmp	r0, #69	; 0x45
 43e:	d85b      	bhi.n	4f8 <print_dec+0x13c>
 440:	283b      	cmp	r0, #59	; 0x3b
 442:	d85e      	bhi.n	502 <print_dec+0x146>
 444:	2831      	cmp	r0, #49	; 0x31
 446:	d861      	bhi.n	50c <print_dec+0x150>
 448:	2827      	cmp	r0, #39	; 0x27
 44a:	d864      	bhi.n	516 <print_dec+0x15a>
 44c:	281d      	cmp	r0, #29
 44e:	d867      	bhi.n	520 <print_dec+0x164>
 450:	2813      	cmp	r0, #19
 452:	d86a      	bhi.n	52a <print_dec+0x16e>
 454:	2809      	cmp	r0, #9
 456:	d96d      	bls.n	534 <print_dec+0x178>
 458:	4b4c      	ldr	r3, [pc, #304]	; (58c <print_dec+0x1d0>)
 45a:	2231      	movs	r2, #49	; 0x31
 45c:	701a      	strb	r2, [r3, #0]
 45e:	380a      	subs	r0, #10
 460:	e033      	b.n	4ca <print_dec+0x10e>
 462:	4b4a      	ldr	r3, [pc, #296]	; (58c <print_dec+0x1d0>)
 464:	2238      	movs	r2, #56	; 0x38
 466:	701a      	strb	r2, [r3, #0]
 468:	4b50      	ldr	r3, [pc, #320]	; (5ac <print_dec+0x1f0>)
 46a:	469c      	mov	ip, r3
 46c:	4460      	add	r0, ip
 46e:	e7e1      	b.n	434 <print_dec+0x78>
 470:	4b46      	ldr	r3, [pc, #280]	; (58c <print_dec+0x1d0>)
 472:	2237      	movs	r2, #55	; 0x37
 474:	701a      	strb	r2, [r3, #0]
 476:	4b4e      	ldr	r3, [pc, #312]	; (5b0 <print_dec+0x1f4>)
 478:	469c      	mov	ip, r3
 47a:	4460      	add	r0, ip
 47c:	e7da      	b.n	434 <print_dec+0x78>
 47e:	4b43      	ldr	r3, [pc, #268]	; (58c <print_dec+0x1d0>)
 480:	2236      	movs	r2, #54	; 0x36
 482:	701a      	strb	r2, [r3, #0]
 484:	4b4b      	ldr	r3, [pc, #300]	; (5b4 <print_dec+0x1f8>)
 486:	469c      	mov	ip, r3
 488:	4460      	add	r0, ip
 48a:	e7d3      	b.n	434 <print_dec+0x78>
 48c:	4b3f      	ldr	r3, [pc, #252]	; (58c <print_dec+0x1d0>)
 48e:	2235      	movs	r2, #53	; 0x35
 490:	701a      	strb	r2, [r3, #0]
 492:	38f5      	subs	r0, #245	; 0xf5
 494:	38ff      	subs	r0, #255	; 0xff
 496:	e7cd      	b.n	434 <print_dec+0x78>
 498:	4b3c      	ldr	r3, [pc, #240]	; (58c <print_dec+0x1d0>)
 49a:	2234      	movs	r2, #52	; 0x34
 49c:	701a      	strb	r2, [r3, #0]
 49e:	3891      	subs	r0, #145	; 0x91
 4a0:	38ff      	subs	r0, #255	; 0xff
 4a2:	e7c7      	b.n	434 <print_dec+0x78>
 4a4:	4b39      	ldr	r3, [pc, #228]	; (58c <print_dec+0x1d0>)
 4a6:	2233      	movs	r2, #51	; 0x33
 4a8:	701a      	strb	r2, [r3, #0]
 4aa:	382d      	subs	r0, #45	; 0x2d
 4ac:	38ff      	subs	r0, #255	; 0xff
 4ae:	e7c1      	b.n	434 <print_dec+0x78>
 4b0:	4b36      	ldr	r3, [pc, #216]	; (58c <print_dec+0x1d0>)
 4b2:	2232      	movs	r2, #50	; 0x32
 4b4:	701a      	strb	r2, [r3, #0]
 4b6:	38c8      	subs	r0, #200	; 0xc8
 4b8:	e7bc      	b.n	434 <print_dec+0x78>
 4ba:	4b34      	ldr	r3, [pc, #208]	; (58c <print_dec+0x1d0>)
 4bc:	2230      	movs	r2, #48	; 0x30
 4be:	701a      	strb	r2, [r3, #0]
 4c0:	e7b8      	b.n	434 <print_dec+0x78>
 4c2:	4b32      	ldr	r3, [pc, #200]	; (58c <print_dec+0x1d0>)
 4c4:	2239      	movs	r2, #57	; 0x39
 4c6:	701a      	strb	r2, [r3, #0]
 4c8:	385a      	subs	r0, #90	; 0x5a
 4ca:	2808      	cmp	r0, #8
 4cc:	d836      	bhi.n	53c <print_dec+0x180>
 4ce:	d039      	beq.n	544 <print_dec+0x188>
 4d0:	2806      	cmp	r0, #6
 4d2:	d83b      	bhi.n	54c <print_dec+0x190>
 4d4:	d03e      	beq.n	554 <print_dec+0x198>
 4d6:	2804      	cmp	r0, #4
 4d8:	d840      	bhi.n	55c <print_dec+0x1a0>
 4da:	d043      	beq.n	564 <print_dec+0x1a8>
 4dc:	2802      	cmp	r0, #2
 4de:	d845      	bhi.n	56c <print_dec+0x1b0>
 4e0:	d048      	beq.n	574 <print_dec+0x1b8>
 4e2:	2800      	cmp	r0, #0
 4e4:	d04a      	beq.n	57c <print_dec+0x1c0>
 4e6:	4b29      	ldr	r3, [pc, #164]	; (58c <print_dec+0x1d0>)
 4e8:	2231      	movs	r2, #49	; 0x31
 4ea:	701a      	strb	r2, [r3, #0]
 4ec:	e029      	b.n	542 <print_dec+0x186>
 4ee:	4b27      	ldr	r3, [pc, #156]	; (58c <print_dec+0x1d0>)
 4f0:	2238      	movs	r2, #56	; 0x38
 4f2:	701a      	strb	r2, [r3, #0]
 4f4:	3850      	subs	r0, #80	; 0x50
 4f6:	e7e8      	b.n	4ca <print_dec+0x10e>
 4f8:	4b24      	ldr	r3, [pc, #144]	; (58c <print_dec+0x1d0>)
 4fa:	2237      	movs	r2, #55	; 0x37
 4fc:	701a      	strb	r2, [r3, #0]
 4fe:	3846      	subs	r0, #70	; 0x46
 500:	e7e3      	b.n	4ca <print_dec+0x10e>
 502:	4b22      	ldr	r3, [pc, #136]	; (58c <print_dec+0x1d0>)
 504:	2236      	movs	r2, #54	; 0x36
 506:	701a      	strb	r2, [r3, #0]
 508:	383c      	subs	r0, #60	; 0x3c
 50a:	e7de      	b.n	4ca <print_dec+0x10e>
 50c:	4b1f      	ldr	r3, [pc, #124]	; (58c <print_dec+0x1d0>)
 50e:	2235      	movs	r2, #53	; 0x35
 510:	701a      	strb	r2, [r3, #0]
 512:	3832      	subs	r0, #50	; 0x32
 514:	e7d9      	b.n	4ca <print_dec+0x10e>
 516:	4b1d      	ldr	r3, [pc, #116]	; (58c <print_dec+0x1d0>)
 518:	2234      	movs	r2, #52	; 0x34
 51a:	701a      	strb	r2, [r3, #0]
 51c:	3828      	subs	r0, #40	; 0x28
 51e:	e7d4      	b.n	4ca <print_dec+0x10e>
 520:	4b1a      	ldr	r3, [pc, #104]	; (58c <print_dec+0x1d0>)
 522:	2233      	movs	r2, #51	; 0x33
 524:	701a      	strb	r2, [r3, #0]
 526:	381e      	subs	r0, #30
 528:	e7cf      	b.n	4ca <print_dec+0x10e>
 52a:	4b18      	ldr	r3, [pc, #96]	; (58c <print_dec+0x1d0>)
 52c:	2232      	movs	r2, #50	; 0x32
 52e:	701a      	strb	r2, [r3, #0]
 530:	3814      	subs	r0, #20
 532:	e7ca      	b.n	4ca <print_dec+0x10e>
 534:	4b15      	ldr	r3, [pc, #84]	; (58c <print_dec+0x1d0>)
 536:	2230      	movs	r2, #48	; 0x30
 538:	701a      	strb	r2, [r3, #0]
 53a:	e7c6      	b.n	4ca <print_dec+0x10e>
 53c:	4b13      	ldr	r3, [pc, #76]	; (58c <print_dec+0x1d0>)
 53e:	2239      	movs	r2, #57	; 0x39
 540:	701a      	strb	r2, [r3, #0]
 542:	bd10      	pop	{r4, pc}
 544:	4b11      	ldr	r3, [pc, #68]	; (58c <print_dec+0x1d0>)
 546:	2238      	movs	r2, #56	; 0x38
 548:	701a      	strb	r2, [r3, #0]
 54a:	e7fa      	b.n	542 <print_dec+0x186>
 54c:	4b0f      	ldr	r3, [pc, #60]	; (58c <print_dec+0x1d0>)
 54e:	2237      	movs	r2, #55	; 0x37
 550:	701a      	strb	r2, [r3, #0]
 552:	e7f6      	b.n	542 <print_dec+0x186>
 554:	4b0d      	ldr	r3, [pc, #52]	; (58c <print_dec+0x1d0>)
 556:	2236      	movs	r2, #54	; 0x36
 558:	701a      	strb	r2, [r3, #0]
 55a:	e7f2      	b.n	542 <print_dec+0x186>
 55c:	4b0b      	ldr	r3, [pc, #44]	; (58c <print_dec+0x1d0>)
 55e:	2235      	movs	r2, #53	; 0x35
 560:	701a      	strb	r2, [r3, #0]
 562:	e7ee      	b.n	542 <print_dec+0x186>
 564:	4b09      	ldr	r3, [pc, #36]	; (58c <print_dec+0x1d0>)
 566:	2234      	movs	r2, #52	; 0x34
 568:	701a      	strb	r2, [r3, #0]
 56a:	e7ea      	b.n	542 <print_dec+0x186>
 56c:	4b07      	ldr	r3, [pc, #28]	; (58c <print_dec+0x1d0>)
 56e:	2233      	movs	r2, #51	; 0x33
 570:	701a      	strb	r2, [r3, #0]
 572:	e7e6      	b.n	542 <print_dec+0x186>
 574:	4b05      	ldr	r3, [pc, #20]	; (58c <print_dec+0x1d0>)
 576:	2232      	movs	r2, #50	; 0x32
 578:	701a      	strb	r2, [r3, #0]
 57a:	e7e2      	b.n	542 <print_dec+0x186>
 57c:	4b03      	ldr	r3, [pc, #12]	; (58c <print_dec+0x1d0>)
 57e:	2230      	movs	r2, #48	; 0x30
 580:	701a      	strb	r2, [r3, #0]
 582:	e7de      	b.n	542 <print_dec+0x186>
 584:	000007cf 	andeq	r0, r0, pc, asr #15
 588:	000003e7 	andeq	r0, r0, r7, ror #7
 58c:	40300000 	eorsmi	r0, r0, r0
 590:	fffffc18 			; <UNDEFINED> instruction: 0xfffffc18
 594:	00000383 	andeq	r0, r0, r3, lsl #7
 598:	0000031f 	andeq	r0, r0, pc, lsl r3
 59c:	000002bb 			; <UNDEFINED> instruction: 0x000002bb
 5a0:	00000257 	andeq	r0, r0, r7, asr r2
 5a4:	00000938 	andeq	r0, r0, r8, lsr r9
 5a8:	fffffc7c 			; <UNDEFINED> instruction: 0xfffffc7c
 5ac:	fffffce0 			; <UNDEFINED> instruction: 0xfffffce0
 5b0:	fffffd44 			; <UNDEFINED> instruction: 0xfffffd44
 5b4:	fffffda8 			; <UNDEFINED> instruction: 0xfffffda8

000005b8 <print_digit>:
 5b8:	230f      	movs	r3, #15
 5ba:	4018      	ands	r0, r3
 5bc:	2809      	cmp	r0, #9
 5be:	d015      	beq.n	5ec <print_digit+0x34>
 5c0:	2808      	cmp	r0, #8
 5c2:	d017      	beq.n	5f4 <print_digit+0x3c>
 5c4:	2807      	cmp	r0, #7
 5c6:	d019      	beq.n	5fc <print_digit+0x44>
 5c8:	2806      	cmp	r0, #6
 5ca:	d01b      	beq.n	604 <print_digit+0x4c>
 5cc:	2805      	cmp	r0, #5
 5ce:	d01d      	beq.n	60c <print_digit+0x54>
 5d0:	2804      	cmp	r0, #4
 5d2:	d01f      	beq.n	614 <print_digit+0x5c>
 5d4:	2803      	cmp	r0, #3
 5d6:	d021      	beq.n	61c <print_digit+0x64>
 5d8:	2802      	cmp	r0, #2
 5da:	d023      	beq.n	624 <print_digit+0x6c>
 5dc:	2801      	cmp	r0, #1
 5de:	d025      	beq.n	62c <print_digit+0x74>
 5e0:	2800      	cmp	r0, #0
 5e2:	d127      	bne.n	634 <print_digit+0x7c>
 5e4:	4b15      	ldr	r3, [pc, #84]	; (63c <print_digit+0x84>)
 5e6:	2230      	movs	r2, #48	; 0x30
 5e8:	701a      	strb	r2, [r3, #0]
 5ea:	e002      	b.n	5f2 <print_digit+0x3a>
 5ec:	4b13      	ldr	r3, [pc, #76]	; (63c <print_digit+0x84>)
 5ee:	2239      	movs	r2, #57	; 0x39
 5f0:	701a      	strb	r2, [r3, #0]
 5f2:	4770      	bx	lr
 5f4:	4b11      	ldr	r3, [pc, #68]	; (63c <print_digit+0x84>)
 5f6:	2238      	movs	r2, #56	; 0x38
 5f8:	701a      	strb	r2, [r3, #0]
 5fa:	e7fa      	b.n	5f2 <print_digit+0x3a>
 5fc:	4b0f      	ldr	r3, [pc, #60]	; (63c <print_digit+0x84>)
 5fe:	2237      	movs	r2, #55	; 0x37
 600:	701a      	strb	r2, [r3, #0]
 602:	e7f6      	b.n	5f2 <print_digit+0x3a>
 604:	4b0d      	ldr	r3, [pc, #52]	; (63c <print_digit+0x84>)
 606:	2236      	movs	r2, #54	; 0x36
 608:	701a      	strb	r2, [r3, #0]
 60a:	e7f2      	b.n	5f2 <print_digit+0x3a>
 60c:	4b0b      	ldr	r3, [pc, #44]	; (63c <print_digit+0x84>)
 60e:	2235      	movs	r2, #53	; 0x35
 610:	701a      	strb	r2, [r3, #0]
 612:	e7ee      	b.n	5f2 <print_digit+0x3a>
 614:	4b09      	ldr	r3, [pc, #36]	; (63c <print_digit+0x84>)
 616:	2234      	movs	r2, #52	; 0x34
 618:	701a      	strb	r2, [r3, #0]
 61a:	e7ea      	b.n	5f2 <print_digit+0x3a>
 61c:	4b07      	ldr	r3, [pc, #28]	; (63c <print_digit+0x84>)
 61e:	2233      	movs	r2, #51	; 0x33
 620:	701a      	strb	r2, [r3, #0]
 622:	e7e6      	b.n	5f2 <print_digit+0x3a>
 624:	4b05      	ldr	r3, [pc, #20]	; (63c <print_digit+0x84>)
 626:	2232      	movs	r2, #50	; 0x32
 628:	701a      	strb	r2, [r3, #0]
 62a:	e7e2      	b.n	5f2 <print_digit+0x3a>
 62c:	4b03      	ldr	r3, [pc, #12]	; (63c <print_digit+0x84>)
 62e:	2231      	movs	r2, #49	; 0x31
 630:	701a      	strb	r2, [r3, #0]
 632:	e7de      	b.n	5f2 <print_digit+0x3a>
 634:	4b01      	ldr	r3, [pc, #4]	; (63c <print_digit+0x84>)
 636:	222a      	movs	r2, #42	; 0x2a
 638:	701a      	strb	r2, [r3, #0]
 63a:	e7da      	b.n	5f2 <print_digit+0x3a>
 63c:	40300000 	eorsmi	r0, r0, r0

00000640 <getchar>:
 640:	4b01      	ldr	r3, [pc, #4]	; (648 <getchar+0x8>)
 642:	7818      	ldrb	r0, [r3, #0]
 644:	b2c0      	uxtb	r0, r0
 646:	4770      	bx	lr
 648:	40200000 	eormi	r0, r0, r0

0000064c <cmd_echo>:
 64c:	b570      	push	{r4, r5, r6, lr}
 64e:	480a      	ldr	r0, [pc, #40]	; (678 <cmd_echo+0x2c>)
 650:	f7ff fe94 	bl	37c <print>
 654:	4c09      	ldr	r4, [pc, #36]	; (67c <cmd_echo+0x30>)
 656:	2580      	movs	r5, #128	; 0x80
 658:	062d      	lsls	r5, r5, #24
 65a:	260a      	movs	r6, #10
 65c:	e002      	b.n	664 <cmd_echo+0x18>
 65e:	b2c3      	uxtb	r3, r0
 660:	7023      	strb	r3, [r4, #0]
 662:	6028      	str	r0, [r5, #0]
 664:	f7ff ffec 	bl	640 <getchar>
 668:	2821      	cmp	r0, #33	; 0x21
 66a:	d003      	beq.n	674 <cmd_echo+0x28>
 66c:	280d      	cmp	r0, #13
 66e:	d1f6      	bne.n	65e <cmd_echo+0x12>
 670:	7026      	strb	r6, [r4, #0]
 672:	e7f7      	b.n	664 <cmd_echo+0x18>
 674:	bd70      	pop	{r4, r5, r6, pc}
 676:	46c0      	nop			; (mov r8, r8)
 678:	00000940 	andeq	r0, r0, r0, asr #18
 67c:	40300000 	eorsmi	r0, r0, r0

00000680 <gpio_set_dir>:
 680:	4b01      	ldr	r3, [pc, #4]	; (688 <gpio_set_dir+0x8>)
 682:	6018      	str	r0, [r3, #0]
 684:	4770      	bx	lr
 686:	46c0      	nop			; (mov r8, r8)
 688:	80000004 	andhi	r0, r0, r4

0000068c <gpio_read>:
 68c:	2380      	movs	r3, #128	; 0x80
 68e:	061b      	lsls	r3, r3, #24
 690:	6818      	ldr	r0, [r3, #0]
 692:	4770      	bx	lr

00000694 <gpio_write>:
 694:	2380      	movs	r3, #128	; 0x80
 696:	061b      	lsls	r3, r3, #24
 698:	6018      	str	r0, [r3, #0]
 69a:	4770      	bx	lr

0000069c <i2c_init>:
 69c:	b2c0      	uxtb	r0, r0
 69e:	4b04      	ldr	r3, [pc, #16]	; (6b0 <i2c_init+0x14>)
 6a0:	7018      	strb	r0, [r3, #0]
 6a2:	4b04      	ldr	r3, [pc, #16]	; (6b4 <i2c_init+0x18>)
 6a4:	2200      	movs	r2, #0
 6a6:	701a      	strb	r2, [r3, #0]
 6a8:	4b03      	ldr	r3, [pc, #12]	; (6b8 <i2c_init+0x1c>)
 6aa:	3280      	adds	r2, #128	; 0x80
 6ac:	701a      	strb	r2, [r3, #0]
 6ae:	4770      	bx	lr
 6b0:	40100000 	andsmi	r0, r0, r0
 6b4:	40100004 	andsmi	r0, r0, r4
 6b8:	40100008 	andsmi	r0, r0, r8

000006bc <i2c_send_byte>:
 6bc:	4b0e      	ldr	r3, [pc, #56]	; (6f8 <i2c_send_byte+0x3c>)
 6be:	7018      	strb	r0, [r3, #0]
 6c0:	4b0e      	ldr	r3, [pc, #56]	; (6fc <i2c_send_byte+0x40>)
 6c2:	2290      	movs	r2, #144	; 0x90
 6c4:	701a      	strb	r2, [r3, #0]
 6c6:	480e      	ldr	r0, [pc, #56]	; (700 <i2c_send_byte+0x44>)
 6c8:	3a8e      	subs	r2, #142	; 0x8e
 6ca:	7803      	ldrb	r3, [r0, #0]
 6cc:	4213      	tst	r3, r2
 6ce:	d1fc      	bne.n	6ca <i2c_send_byte+0xe>
 6d0:	4b0b      	ldr	r3, [pc, #44]	; (700 <i2c_send_byte+0x44>)
 6d2:	781b      	ldrb	r3, [r3, #0]
 6d4:	4b08      	ldr	r3, [pc, #32]	; (6f8 <i2c_send_byte+0x3c>)
 6d6:	7019      	strb	r1, [r3, #0]
 6d8:	4b08      	ldr	r3, [pc, #32]	; (6fc <i2c_send_byte+0x40>)
 6da:	2210      	movs	r2, #16
 6dc:	701a      	strb	r2, [r3, #0]
 6de:	4908      	ldr	r1, [pc, #32]	; (700 <i2c_send_byte+0x44>)
 6e0:	3a0e      	subs	r2, #14
 6e2:	780b      	ldrb	r3, [r1, #0]
 6e4:	4213      	tst	r3, r2
 6e6:	d1fc      	bne.n	6e2 <i2c_send_byte+0x26>
 6e8:	4b04      	ldr	r3, [pc, #16]	; (6fc <i2c_send_byte+0x40>)
 6ea:	2240      	movs	r2, #64	; 0x40
 6ec:	701a      	strb	r2, [r3, #0]
 6ee:	4b04      	ldr	r3, [pc, #16]	; (700 <i2c_send_byte+0x44>)
 6f0:	781b      	ldrb	r3, [r3, #0]
 6f2:	2001      	movs	r0, #1
 6f4:	4770      	bx	lr
 6f6:	46c0      	nop			; (mov r8, r8)
 6f8:	4010000c 	andsmi	r0, r0, ip
 6fc:	40100014 	andsmi	r0, r0, r4, lsl r0
 700:	40100018 	andsmi	r0, r0, r8, lsl r0

00000704 <i2c_read_bytes>:
 704:	b5f0      	push	{r4, r5, r6, r7, lr}
 706:	46c6      	mov	lr, r8
 708:	b500      	push	{lr}
 70a:	4b43      	ldr	r3, [pc, #268]	; (818 <i2c_read_bytes+0x114>)
 70c:	7018      	strb	r0, [r3, #0]
 70e:	4b43      	ldr	r3, [pc, #268]	; (81c <i2c_read_bytes+0x118>)
 710:	2490      	movs	r4, #144	; 0x90
 712:	701c      	strb	r4, [r3, #0]
 714:	4b42      	ldr	r3, [pc, #264]	; (820 <i2c_read_bytes+0x11c>)
 716:	781b      	ldrb	r3, [r3, #0]
 718:	079b      	lsls	r3, r3, #30
 71a:	d508      	bpl.n	72e <i2c_read_bytes+0x2a>
 71c:	2780      	movs	r7, #128	; 0x80
 71e:	063f      	lsls	r7, r7, #24
 720:	2601      	movs	r6, #1
 722:	4d3f      	ldr	r5, [pc, #252]	; (820 <i2c_read_bytes+0x11c>)
 724:	3c8e      	subs	r4, #142	; 0x8e
 726:	603e      	str	r6, [r7, #0]
 728:	782b      	ldrb	r3, [r5, #0]
 72a:	4223      	tst	r3, r4
 72c:	d1fb      	bne.n	726 <i2c_read_bytes+0x22>
 72e:	2380      	movs	r3, #128	; 0x80
 730:	061b      	lsls	r3, r3, #24
 732:	2402      	movs	r4, #2
 734:	601c      	str	r4, [r3, #0]
 736:	4b3a      	ldr	r3, [pc, #232]	; (820 <i2c_read_bytes+0x11c>)
 738:	781c      	ldrb	r4, [r3, #0]
 73a:	4c37      	ldr	r4, [pc, #220]	; (818 <i2c_read_bytes+0x114>)
 73c:	7021      	strb	r1, [r4, #0]
 73e:	4937      	ldr	r1, [pc, #220]	; (81c <i2c_read_bytes+0x118>)
 740:	2410      	movs	r4, #16
 742:	700c      	strb	r4, [r1, #0]
 744:	781b      	ldrb	r3, [r3, #0]
 746:	079b      	lsls	r3, r3, #30
 748:	d508      	bpl.n	75c <i2c_read_bytes+0x58>
 74a:	2680      	movs	r6, #128	; 0x80
 74c:	0636      	lsls	r6, r6, #24
 74e:	2503      	movs	r5, #3
 750:	4c33      	ldr	r4, [pc, #204]	; (820 <i2c_read_bytes+0x11c>)
 752:	2102      	movs	r1, #2
 754:	6035      	str	r5, [r6, #0]
 756:	7823      	ldrb	r3, [r4, #0]
 758:	420b      	tst	r3, r1
 75a:	d1fb      	bne.n	754 <i2c_read_bytes+0x50>
 75c:	2380      	movs	r3, #128	; 0x80
 75e:	061b      	lsls	r3, r3, #24
 760:	2104      	movs	r1, #4
 762:	6019      	str	r1, [r3, #0]
 764:	4b2e      	ldr	r3, [pc, #184]	; (820 <i2c_read_bytes+0x11c>)
 766:	7819      	ldrb	r1, [r3, #0]
 768:	2101      	movs	r1, #1
 76a:	4308      	orrs	r0, r1
 76c:	492a      	ldr	r1, [pc, #168]	; (818 <i2c_read_bytes+0x114>)
 76e:	7008      	strb	r0, [r1, #0]
 770:	492a      	ldr	r1, [pc, #168]	; (81c <i2c_read_bytes+0x118>)
 772:	2090      	movs	r0, #144	; 0x90
 774:	7008      	strb	r0, [r1, #0]
 776:	781b      	ldrb	r3, [r3, #0]
 778:	079b      	lsls	r3, r3, #30
 77a:	d508      	bpl.n	78e <i2c_read_bytes+0x8a>
 77c:	2580      	movs	r5, #128	; 0x80
 77e:	062d      	lsls	r5, r5, #24
 780:	2405      	movs	r4, #5
 782:	4827      	ldr	r0, [pc, #156]	; (820 <i2c_read_bytes+0x11c>)
 784:	2102      	movs	r1, #2
 786:	602c      	str	r4, [r5, #0]
 788:	7803      	ldrb	r3, [r0, #0]
 78a:	420b      	tst	r3, r1
 78c:	d1fb      	bne.n	786 <i2c_read_bytes+0x82>
 78e:	2380      	movs	r3, #128	; 0x80
 790:	061b      	lsls	r3, r3, #24
 792:	2106      	movs	r1, #6
 794:	6019      	str	r1, [r3, #0]
 796:	4b22      	ldr	r3, [pc, #136]	; (820 <i2c_read_bytes+0x11c>)
 798:	781b      	ldrb	r3, [r3, #0]
 79a:	2600      	movs	r6, #0
 79c:	2480      	movs	r4, #128	; 0x80
 79e:	0624      	lsls	r4, r4, #24
 7a0:	2508      	movs	r5, #8
 7a2:	491f      	ldr	r1, [pc, #124]	; (820 <i2c_read_bytes+0x11c>)
 7a4:	2002      	movs	r0, #2
 7a6:	230e      	movs	r3, #14
 7a8:	4698      	mov	r8, r3
 7aa:	4b1e      	ldr	r3, [pc, #120]	; (824 <i2c_read_bytes+0x120>)
 7ac:	469c      	mov	ip, r3
 7ae:	4f1b      	ldr	r7, [pc, #108]	; (81c <i2c_read_bytes+0x118>)
 7b0:	e012      	b.n	7d8 <i2c_read_bytes+0xd4>
 7b2:	2360      	movs	r3, #96	; 0x60
 7b4:	703b      	strb	r3, [r7, #0]
 7b6:	780b      	ldrb	r3, [r1, #0]
 7b8:	4203      	tst	r3, r0
 7ba:	d01b      	beq.n	7f4 <i2c_read_bytes+0xf0>
 7bc:	6025      	str	r5, [r4, #0]
 7be:	780b      	ldrb	r3, [r1, #0]
 7c0:	4203      	tst	r3, r0
 7c2:	d1fb      	bne.n	7bc <i2c_read_bytes+0xb8>
 7c4:	4643      	mov	r3, r8
 7c6:	6023      	str	r3, [r4, #0]
 7c8:	780b      	ldrb	r3, [r1, #0]
 7ca:	4663      	mov	r3, ip
 7cc:	781b      	ldrb	r3, [r3, #0]
 7ce:	5593      	strb	r3, [r2, r6]
 7d0:	1c73      	adds	r3, r6, #1
 7d2:	2b02      	cmp	r3, #2
 7d4:	dc17      	bgt.n	806 <i2c_read_bytes+0x102>
 7d6:	3601      	adds	r6, #1
 7d8:	2e01      	cmp	r6, #1
 7da:	dcea      	bgt.n	7b2 <i2c_read_bytes+0xae>
 7dc:	2320      	movs	r3, #32
 7de:	703b      	strb	r3, [r7, #0]
 7e0:	780b      	ldrb	r3, [r1, #0]
 7e2:	4203      	tst	r3, r0
 7e4:	d1ea      	bne.n	7bc <i2c_read_bytes+0xb8>
 7e6:	4643      	mov	r3, r8
 7e8:	6023      	str	r3, [r4, #0]
 7ea:	780b      	ldrb	r3, [r1, #0]
 7ec:	4663      	mov	r3, ip
 7ee:	781b      	ldrb	r3, [r3, #0]
 7f0:	5593      	strb	r3, [r2, r6]
 7f2:	e7f0      	b.n	7d6 <i2c_read_bytes+0xd2>
 7f4:	2380      	movs	r3, #128	; 0x80
 7f6:	061b      	lsls	r3, r3, #24
 7f8:	210e      	movs	r1, #14
 7fa:	6019      	str	r1, [r3, #0]
 7fc:	4b08      	ldr	r3, [pc, #32]	; (820 <i2c_read_bytes+0x11c>)
 7fe:	781b      	ldrb	r3, [r3, #0]
 800:	4b08      	ldr	r3, [pc, #32]	; (824 <i2c_read_bytes+0x120>)
 802:	781b      	ldrb	r3, [r3, #0]
 804:	5593      	strb	r3, [r2, r6]
 806:	2380      	movs	r3, #128	; 0x80
 808:	061b      	lsls	r3, r3, #24
 80a:	220e      	movs	r2, #14
 80c:	601a      	str	r2, [r3, #0]
 80e:	2001      	movs	r0, #1
 810:	bc04      	pop	{r2}
 812:	4690      	mov	r8, r2
 814:	bdf0      	pop	{r4, r5, r6, r7, pc}
 816:	46c0      	nop			; (mov r8, r8)
 818:	4010000c 	andsmi	r0, r0, ip
 81c:	40100014 	andsmi	r0, r0, r4, lsl r0
 820:	40100018 	andsmi	r0, r0, r8, lsl r0
 824:	40100010 	andsmi	r0, r0, r0, lsl r0

00000828 <i2c_read_byte>:
 828:	b510      	push	{r4, lr}
 82a:	4b1a      	ldr	r3, [pc, #104]	; (894 <i2c_read_byte+0x6c>)
 82c:	7018      	strb	r0, [r3, #0]
 82e:	4b1a      	ldr	r3, [pc, #104]	; (898 <i2c_read_byte+0x70>)
 830:	2290      	movs	r2, #144	; 0x90
 832:	701a      	strb	r2, [r3, #0]
 834:	4c19      	ldr	r4, [pc, #100]	; (89c <i2c_read_byte+0x74>)
 836:	3a8e      	subs	r2, #142	; 0x8e
 838:	7823      	ldrb	r3, [r4, #0]
 83a:	4213      	tst	r3, r2
 83c:	d1fc      	bne.n	838 <i2c_read_byte+0x10>
 83e:	4b17      	ldr	r3, [pc, #92]	; (89c <i2c_read_byte+0x74>)
 840:	781b      	ldrb	r3, [r3, #0]
 842:	4b14      	ldr	r3, [pc, #80]	; (894 <i2c_read_byte+0x6c>)
 844:	7019      	strb	r1, [r3, #0]
 846:	4b14      	ldr	r3, [pc, #80]	; (898 <i2c_read_byte+0x70>)
 848:	2210      	movs	r2, #16
 84a:	701a      	strb	r2, [r3, #0]
 84c:	4913      	ldr	r1, [pc, #76]	; (89c <i2c_read_byte+0x74>)
 84e:	3a0e      	subs	r2, #14
 850:	780b      	ldrb	r3, [r1, #0]
 852:	4213      	tst	r3, r2
 854:	d1fc      	bne.n	850 <i2c_read_byte+0x28>
 856:	4b11      	ldr	r3, [pc, #68]	; (89c <i2c_read_byte+0x74>)
 858:	781b      	ldrb	r3, [r3, #0]
 85a:	2301      	movs	r3, #1
 85c:	4318      	orrs	r0, r3
 85e:	4b0d      	ldr	r3, [pc, #52]	; (894 <i2c_read_byte+0x6c>)
 860:	7018      	strb	r0, [r3, #0]
 862:	4b0d      	ldr	r3, [pc, #52]	; (898 <i2c_read_byte+0x70>)
 864:	2290      	movs	r2, #144	; 0x90
 866:	701a      	strb	r2, [r3, #0]
 868:	490c      	ldr	r1, [pc, #48]	; (89c <i2c_read_byte+0x74>)
 86a:	3a8e      	subs	r2, #142	; 0x8e
 86c:	780b      	ldrb	r3, [r1, #0]
 86e:	4213      	tst	r3, r2
 870:	d1fc      	bne.n	86c <i2c_read_byte+0x44>
 872:	4b0a      	ldr	r3, [pc, #40]	; (89c <i2c_read_byte+0x74>)
 874:	781b      	ldrb	r3, [r3, #0]
 876:	4b08      	ldr	r3, [pc, #32]	; (898 <i2c_read_byte+0x70>)
 878:	2260      	movs	r2, #96	; 0x60
 87a:	701a      	strb	r2, [r3, #0]
 87c:	4907      	ldr	r1, [pc, #28]	; (89c <i2c_read_byte+0x74>)
 87e:	3a5e      	subs	r2, #94	; 0x5e
 880:	780b      	ldrb	r3, [r1, #0]
 882:	4213      	tst	r3, r2
 884:	d1fc      	bne.n	880 <i2c_read_byte+0x58>
 886:	4b05      	ldr	r3, [pc, #20]	; (89c <i2c_read_byte+0x74>)
 888:	781b      	ldrb	r3, [r3, #0]
 88a:	4b05      	ldr	r3, [pc, #20]	; (8a0 <i2c_read_byte+0x78>)
 88c:	7818      	ldrb	r0, [r3, #0]
 88e:	b2c0      	uxtb	r0, r0
 890:	bd10      	pop	{r4, pc}
 892:	46c0      	nop			; (mov r8, r8)
 894:	4010000c 	andsmi	r0, r0, ip
 898:	40100014 	andsmi	r0, r0, r4, lsl r0
 89c:	40100018 	andsmi	r0, r0, r8, lsl r0
 8a0:	40100010 	andsmi	r0, r0, r0, lsl r0

000008a4 <main>:
 8a4:	b500      	push	{lr}
 8a6:	b083      	sub	sp, #12
 8a8:	2000      	movs	r0, #0
 8aa:	f7ff fee9 	bl	680 <gpio_set_dir>
 8ae:	200f      	movs	r0, #15
 8b0:	f7ff fef0 	bl	694 <gpio_write>
 8b4:	4b09      	ldr	r3, [pc, #36]	; (8dc <main+0x38>)
 8b6:	3b01      	subs	r3, #1
 8b8:	2b00      	cmp	r3, #0
 8ba:	d1fc      	bne.n	8b6 <main+0x12>
 8bc:	2013      	movs	r0, #19
 8be:	f7ff feed 	bl	69c <i2c_init>
 8c2:	aa01      	add	r2, sp, #4
 8c4:	2102      	movs	r1, #2
 8c6:	20a2      	movs	r0, #162	; 0xa2
 8c8:	f7ff ff1c 	bl	704 <i2c_read_bytes>
 8cc:	200a      	movs	r0, #10
 8ce:	f7ff fee1 	bl	694 <gpio_write>
 8d2:	4b02      	ldr	r3, [pc, #8]	; (8dc <main+0x38>)
 8d4:	3b01      	subs	r3, #1
 8d6:	2b00      	cmp	r3, #0
 8d8:	d1fc      	bne.n	8d4 <main+0x30>
 8da:	e7f2      	b.n	8c2 <main+0x1e>
 8dc:	00011170 	andeq	r1, r1, r0, ror r1
	...

00000900 <GPIO_DIR>:
 900:	80000004 	andhi	r0, r0, r4

00000904 <GPIO_DATA>:
 904:	80000000 	andhi	r0, r0, r0

00000908 <I2C_STAT>:
 908:	40100018 	andsmi	r0, r0, r8, lsl r0

0000090c <I2C_CMD>:
 90c:	40100014 	andsmi	r0, r0, r4, lsl r0

00000910 <I2C_RX>:
 910:	40100010 	andsmi	r0, r0, r0, lsl r0

00000914 <I2C_TX>:
 914:	4010000c 	andsmi	r0, r0, ip

00000918 <I2C_CTRL>:
 918:	40100008 	andsmi	r0, r0, r8

0000091c <I2C_PRE_HI>:
 91c:	40100004 	andsmi	r0, r0, r4

00000920 <I2C_PRE_LO>:
 920:	40100000 	andsmi	r0, r0, r0
 924:	33323130 	teqcc	r2, #12
 928:	37363534 			; <UNDEFINED> instruction: 0x37363534
 92c:	62613938 	rsbvs	r3, r1, #56, 18	; 0xe0000
 930:	66656463 	strbtvs	r6, [r5], -r3, ror #8
 934:	00000000 	andeq	r0, r0, r0
 938:	5245564f 	subpl	r5, r5, #82837504	; 0x4f00000
 93c:	00000000 	andeq	r0, r0, r0
 940:	75746552 	ldrbvc	r6, [r4, #-1362]!	; 0xfffffaae
 944:	74206e72 	strtvc	r6, [r0], #-3698	; 0xfffff18e
 948:	656d206f 	strbvs	r2, [sp, #-111]!	; 0xffffff91
 94c:	6220756e 	eorvs	r7, r0, #461373440	; 0x1b800000
 950:	65732079 	ldrbvs	r2, [r3, #-121]!	; 0xffffff87
 954:	6e69646e 	cdpvs	4, 6, cr6, cr9, cr14, {3}
 958:	21272067 			; <UNDEFINED> instruction: 0x21272067
 95c:	000a0a27 	andeq	r0, sl, r7, lsr #20

Disassembly of section .bss:

20000000 <CLKCTRL_PLLCR>:
20000000:	00000000 	andeq	r0, r0, r0

20000004 <CLKCTRL_CLKCR>:
20000004:	00000000 	andeq	r0, r0, r0

20000008 <CLKCTRL_PLLTR>:
20000008:	00000000 	andeq	r0, r0, r0

Disassembly of section .ARM.attributes:

00000000 <.ARM.attributes>:
   0:	00002741 	andeq	r2, r0, r1, asr #14
   4:	61656100 	cmnvs	r5, r0, lsl #2
   8:	01006962 	tsteq	r0, r2, ror #18
   c:	0000001d 	andeq	r0, r0, sp, lsl r0
  10:	2d533605 	ldclcs	6, cr3, [r3, #-20]	; 0xffffffec
  14:	0c06004d 	stceq	0, cr0, [r6], {77}	; 0x4d
  18:	01094d07 	tsteq	r9, r7, lsl #26
  1c:	01140412 	tsteq	r4, r2, lsl r4
  20:	03170115 	tsteq	r7, #1073741829	; 0x40000005
  24:	011a0118 	tsteq	sl, r8, lsl r1

Disassembly of section .comment:

00000000 <.comment>:
   0:	3a434347 	bcc	10d0d24 <Stack_Size+0x10cfd24>
   4:	4e472820 	cdpmi	8, 4, cr2, cr7, cr0, {1}
   8:	6f542055 	svcvs	0x00542055
   c:	20736c6f 	rsbscs	r6, r3, pc, ror #24
  10:	20726f66 	rsbscs	r6, r2, r6, ror #30
  14:	206d7241 	rsbcs	r7, sp, r1, asr #4
  18:	65626d45 	strbvs	r6, [r2, #-3397]!	; 0xfffff2bb
  1c:	64656464 	strbtvs	r6, [r5], #-1124	; 0xfffffb9c
  20:	6f725020 	svcvs	0x00725020
  24:	73736563 	cmnvc	r3, #415236096	; 0x18c00000
  28:	2073726f 	rsbscs	r7, r3, pc, ror #4
  2c:	30322d38 	eorscc	r2, r2, r8, lsr sp
  30:	712d3931 			; <UNDEFINED> instruction: 0x712d3931
  34:	70752d33 	rsbsvc	r2, r5, r3, lsr sp
  38:	65746164 	ldrbvs	r6, [r4, #-356]!	; 0xfffffe9c
  3c:	2e382029 	cdpcs	0, 3, cr2, cr8, cr9, {1}
  40:	20312e33 	eorscs	r2, r1, r3, lsr lr
  44:	39313032 	ldmdbcc	r1!, {r1, r4, r5, ip, sp}
  48:	33303730 	teqcc	r0, #48, 14	; 0xc00000
  4c:	65722820 	ldrbvs	r2, [r2, #-2080]!	; 0xfffff7e0
  50:	7361656c 	cmnvc	r1, #108, 10	; 0x1b000000
  54:	5b202965 	blpl	80a5f0 <Stack_Size+0x8095f0>
  58:	2d636367 	stclcs	3, cr6, [r3, #-412]!	; 0xfffffe64
  5c:	72622d38 	rsbvc	r2, r2, #56, 26	; 0xe00
  60:	68636e61 	stmdavs	r3!, {r0, r5, r6, r9, sl, fp, sp, lr}^
  64:	76657220 	strbtvc	r7, [r5], -r0, lsr #4
  68:	6f697369 	svcvs	0x00697369
  6c:	3732206e 	ldrcc	r2, [r2, -lr, rrx]!
  70:	37323033 			; <UNDEFINED> instruction: 0x37323033
  74:	Address 0x0000000000000074 is out of bounds.


Disassembly of section .debug_info:

00000000 <.debug_info>:
   0:	000009ba 			; <UNDEFINED> instruction: 0x000009ba
   4:	00000004 	andeq	r0, r0, r4
   8:	01040000 	mrseq	r0, (UNDEF: 4)
   c:	00000014 	andeq	r0, r0, r4, lsl r0
  10:	0000a30c 	andeq	sl, r0, ip, lsl #6
  14:	00016c00 	andeq	r6, r1, r0, lsl #24
  18:	00037000 	andeq	r7, r3, r0
  1c:	00031000 	andeq	r1, r3, r0
  20:	00000000 	andeq	r0, r0, r0
  24:	06010200 	streq	r0, [r1], -r0, lsl #4
  28:	000000b9 	strheq	r0, [r0], -r9
  2c:	41050202 	tstmi	r5, r2, lsl #4
  30:	03000001 	movweq	r0, #1
  34:	00000156 	andeq	r0, r0, r6, asr r1
  38:	3f182802 	svccc	0x00182802
  3c:	02000000 	andeq	r0, r0, #0, 0
  40:	01280504 			; <UNDEFINED> instruction: 0x01280504
  44:	08020000 	stmdaeq	r2, {}	; <UNPREDICTABLE>
  48:	00012305 	andeq	r2, r1, r5, lsl #6
  4c:	08010200 	stmdaeq	r1, {r9}
  50:	000000b7 	strheq	r0, [r0], -r7
  54:	c5070202 	strgt	r0, [r7, #-514]	; 0xfffffdfe
  58:	03000000 	movweq	r0, #0
  5c:	00000155 	andeq	r0, r0, r5, asr r1
  60:	67193402 	ldrvs	r3, [r9, -r2, lsl #8]
  64:	02000000 	andeq	r0, r0, #0, 0
  68:	01090704 	tsteq	r9, r4, lsl #14
  6c:	08020000 	stmdaeq	r2, {}	; <UNPREDICTABLE>
  70:	00010407 	andeq	r0, r1, r7, lsl #8
  74:	05040400 	streq	r0, [r4, #-1024]	; 0xfffffc00
  78:	00746e69 	rsbseq	r6, r4, r9, ror #28
  7c:	0e070402 	cdpeq	4, 0, cr0, cr7, cr2, {0}
  80:	05000001 	streq	r0, [r0, #-1]
  84:	0000007c 	andeq	r0, r0, ip, ror r0
  88:	00000006 	andeq	r0, r0, r6
  8c:	1f0b0300 	svcne	0x000b0300
  90:	000000a0 	andeq	r0, r0, r0, lsr #1
  94:	00000305 	andeq	r0, r0, r5, lsl #6
  98:	04072000 	streq	r2, [r7], #-0
  9c:	00000083 	andeq	r0, r0, r3, lsl #1
  a0:	00009a08 	andeq	r9, r0, r8, lsl #20
  a4:	015e0600 	cmpeq	lr, r0, lsl #12
  a8:	0c030000 	stceq	0, cr0, [r3], {-0}
  ac:	0000a01f 	andeq	sl, r0, pc, lsl r0
  b0:	08030500 	stmdaeq	r3, {r8, sl}
  b4:	06200000 	strteq	r0, [r0], -r0
  b8:	000000ea 	andeq	r0, r0, sl, ror #1
  bc:	a01f0d03 	andsge	r0, pc, r3, lsl #26
  c0:	05000000 	streq	r0, [r0, #-0]
  c4:	00000403 	andeq	r0, r0, r3, lsl #8
  c8:	00b20920 	adcseq	r0, r2, r0, lsr #18
  cc:	17040000 	strne	r0, [r4, -r0]
  d0:	00005b11 	andeq	r5, r0, r1, lsl fp
  d4:	01310a00 	teqeq	r1, r0, lsl #20
  d8:	7a010000 	bvc	400e0 <Stack_Size+0x3f0e0>
  dc:	00064c06 	andeq	r4, r6, r6, lsl #24
  e0:	00003400 	andeq	r3, r0, r0, lsl #8
  e4:	669c0100 	ldrvs	r0, [ip], r0, lsl #2
  e8:	0b000001 	bleq	f4 <Heap_Size+0xf4>
  ec:	7d010063 	stcvc	0, cr0, [r1, #-396]	; 0xfffffe74
  f0:	00005b0b 	andeq	r5, r0, fp, lsl #22
  f4:	00000400 	andeq	r0, r0, r0, lsl #8
  f8:	00000000 	andeq	r0, r0, r0
  fc:	09880c00 	stmibeq	r8, {sl, fp}
 100:	065e0000 	ldrbeq	r0, [lr], -r0
 104:	00010000 	andeq	r0, r1, r0
 108:	00000030 	andeq	r0, r0, r0, lsr r0
 10c:	21078201 	tstcs	r7, r1, lsl #4
 110:	0d000001 	stceq	0, cr0, [r0, #-4]
 114:	00000995 	muleq	r0, r5, r9
 118:	00000024 	andeq	r0, r0, r4, lsr #32
 11c:	00000022 	andeq	r0, r0, r2, lsr #32
 120:	09880c00 	stmibeq	r8, {sl, fp}
 124:	06700000 	ldrbteq	r0, [r0], -r0
 128:	00010000 	andeq	r0, r1, r0
 12c:	00000048 	andeq	r0, r0, r8, asr #32
 130:	45078001 	strmi	r8, [r7, #-1]
 134:	0d000001 	stceq	0, cr0, [r0, #-4]
 138:	00000995 	muleq	r0, r5, r9
 13c:	00000039 	andeq	r0, r0, r9, lsr r0
 140:	00000037 	andeq	r0, r0, r7, lsr r0
 144:	06540e00 	ldrbeq	r0, [r4], -r0, lsl #28
 148:	09390000 	ldmdbeq	r9!, {}	; <UNPREDICTABLE>
 14c:	015c0000 	cmpeq	ip, r0
 150:	010f0000 	mrseq	r0, CPSR
 154:	40030550 	andmi	r0, r3, r0, asr r5
 158:	00000009 	andeq	r0, r0, r9
 15c:	00066810 	andeq	r6, r6, r0, lsl r8
 160:	00016600 	andeq	r6, r1, r0, lsl #12
 164:	1b110000 	blne	44016c <Stack_Size+0x43f16c>
 168:	01000001 	tsteq	r0, r1
 16c:	005b0a71 	subseq	r0, fp, r1, ror sl
 170:	06400000 	strbeq	r0, [r0], -r0
 174:	000c0000 	andeq	r0, ip, r0
 178:	9c010000 	stcls	0, cr0, [r1], {-0}
 17c:	00000193 	muleq	r0, r3, r1
 180:	0100630b 	tsteq	r0, fp, lsl #6
 184:	00330a73 	eorseq	r0, r3, r3, ror sl
 188:	00510000 	subseq	r0, r1, r0
 18c:	004d0000 	subeq	r0, sp, r0
 190:	12000000 	andne	r0, r0, #0, 0
 194:	000000f8 	strdeq	r0, [r0], -r8
 198:	b8064401 	stmdalt	r6, {r0, sl, lr}
 19c:	88000005 	stmdahi	r0, {r0, r2}
 1a0:	01000000 	mrseq	r0, (UNDEF: 0)
 1a4:	0003699c 	muleq	r3, ip, r9
 1a8:	00761300 	rsbseq	r1, r6, r0, lsl #6
 1ac:	5b1b4401 	blpl	6d11b8 <Stack_Size+0x6d01b8>
 1b0:	7a000000 	bvc	1b8 <DebugMon_Handler+0x4>
 1b4:	76000000 	strvc	r0, [r0], -r0
 1b8:	14000000 	strne	r0, [r0], #-0
 1bc:	00000988 	andeq	r0, r0, r8, lsl #19
 1c0:	000005e4 	andeq	r0, r0, r4, ror #11
 1c4:	05e40001 	strbeq	r0, [r4, #1]!
 1c8:	00080000 	andeq	r0, r8, r0
 1cc:	51010000 	mrspl	r0, (UNDEF: 1)
 1d0:	0001e318 	andeq	lr, r1, r8, lsl r3
 1d4:	09950d00 	ldmibeq	r5, {r8, sl, fp}
 1d8:	009a0000 	addseq	r0, sl, r0
 1dc:	00980000 	addseq	r0, r8, r0
 1e0:	14000000 	strne	r0, [r0], #-0
 1e4:	00000988 	andeq	r0, r0, r8, lsl #19
 1e8:	000005ec 	andeq	r0, r0, ip, ror #11
 1ec:	05ec0002 	strbeq	r0, [ip, #2]!
 1f0:	00060000 	andeq	r0, r6, r0
 1f4:	48010000 	stmdami	r1, {}	; <UNPREDICTABLE>
 1f8:	00020b13 	andeq	r0, r2, r3, lsl fp
 1fc:	09950d00 	ldmibeq	r5, {r8, sl, fp}
 200:	00b10000 	adcseq	r0, r1, r0
 204:	00af0000 	adceq	r0, pc, r0
 208:	14000000 	strne	r0, [r0], #-0
 20c:	00000988 	andeq	r0, r0, r8, lsl #19
 210:	000005f4 	strdeq	r0, [r0], -r4
 214:	05f40001 	ldrbeq	r0, [r4, #1]!
 218:	00080000 	andeq	r0, r8, r0
 21c:	49010000 	stmdbmi	r1, {}	; <UNPREDICTABLE>
 220:	00023318 	andeq	r3, r2, r8, lsl r3
 224:	09950d00 	ldmibeq	r5, {r8, sl, fp}
 228:	00c80000 	sbceq	r0, r8, r0
 22c:	00c60000 	sbceq	r0, r6, r0
 230:	14000000 	strne	r0, [r0], #-0
 234:	00000988 	andeq	r0, r0, r8, lsl #19
 238:	000005fc 	strdeq	r0, [r0], -ip
 23c:	05fc0002 	ldrbeq	r0, [ip, #2]!
 240:	00080000 	andeq	r0, r8, r0
 244:	4a010000 	bmi	4024c <Stack_Size+0x3f24c>
 248:	00025b18 	andeq	r5, r2, r8, lsl fp
 24c:	09950d00 	ldmibeq	r5, {r8, sl, fp}
 250:	00df0000 	sbcseq	r0, pc, r0
 254:	00dd0000 	sbcseq	r0, sp, r0
 258:	14000000 	strne	r0, [r0], #-0
 25c:	00000988 	andeq	r0, r0, r8, lsl #19
 260:	00000604 	andeq	r0, r0, r4, lsl #12
 264:	06040002 	streq	r0, [r4], -r2
 268:	00080000 	andeq	r0, r8, r0
 26c:	4b010000 	blmi	40274 <Stack_Size+0x3f274>
 270:	00028318 	andeq	r8, r2, r8, lsl r3
 274:	09950d00 	ldmibeq	r5, {r8, sl, fp}
 278:	00f60000 	rscseq	r0, r6, r0
 27c:	00f40000 	rscseq	r0, r4, r0
 280:	14000000 	strne	r0, [r0], #-0
 284:	00000988 	andeq	r0, r0, r8, lsl #19
 288:	0000060c 	andeq	r0, r0, ip, lsl #12
 28c:	060c0002 	streq	r0, [ip], -r2
 290:	00080000 	andeq	r0, r8, r0
 294:	4c010000 	stcmi	0, cr0, [r1], {-0}
 298:	0002ab18 	andeq	sl, r2, r8, lsl fp
 29c:	09950d00 	ldmibeq	r5, {r8, sl, fp}
 2a0:	010d0000 	mrseq	r0, (UNDEF: 13)
 2a4:	010b0000 	mrseq	r0, (UNDEF: 11)
 2a8:	14000000 	strne	r0, [r0], #-0
 2ac:	00000988 	andeq	r0, r0, r8, lsl #19
 2b0:	00000614 	andeq	r0, r0, r4, lsl r6
 2b4:	06140002 	ldreq	r0, [r4], -r2
 2b8:	00080000 	andeq	r0, r8, r0
 2bc:	4d010000 	stcmi	0, cr0, [r1, #-0]
 2c0:	0002d318 	andeq	sp, r2, r8, lsl r3
 2c4:	09950d00 	ldmibeq	r5, {r8, sl, fp}
 2c8:	01240000 			; <UNDEFINED> instruction: 0x01240000
 2cc:	01220000 			; <UNDEFINED> instruction: 0x01220000
 2d0:	14000000 	strne	r0, [r0], #-0
 2d4:	00000988 	andeq	r0, r0, r8, lsl #19
 2d8:	0000061c 	andeq	r0, r0, ip, lsl r6
 2dc:	061c0002 	ldreq	r0, [ip], -r2
 2e0:	00080000 	andeq	r0, r8, r0
 2e4:	4e010000 	cdpmi	0, 0, cr0, cr1, cr0, {0}
 2e8:	0002fb18 	andeq	pc, r2, r8, lsl fp	; <UNPREDICTABLE>
 2ec:	09950d00 	ldmibeq	r5, {r8, sl, fp}
 2f0:	013b0000 	teqeq	fp, r0
 2f4:	01390000 	teqeq	r9, r0
 2f8:	14000000 	strne	r0, [r0], #-0
 2fc:	00000988 	andeq	r0, r0, r8, lsl #19
 300:	00000624 	andeq	r0, r0, r4, lsr #12
 304:	06240002 	strteq	r0, [r4], -r2
 308:	00080000 	andeq	r0, r8, r0
 30c:	4f010000 	svcmi	0x00010000
 310:	00032318 	andeq	r2, r3, r8, lsl r3
 314:	09950d00 	ldmibeq	r5, {r8, sl, fp}
 318:	01520000 	cmpeq	r2, r0
 31c:	01500000 	cmpeq	r0, r0
 320:	14000000 	strne	r0, [r0], #-0
 324:	00000988 	andeq	r0, r0, r8, lsl #19
 328:	0000062c 	andeq	r0, r0, ip, lsr #12
 32c:	062c0002 	strteq	r0, [ip], -r2
 330:	00080000 	andeq	r0, r8, r0
 334:	50010000 	andpl	r0, r1, r0
 338:	00034b18 	andeq	r4, r3, r8, lsl fp
 33c:	09950d00 	ldmibeq	r5, {r8, sl, fp}
 340:	01690000 	cmneq	r9, r0
 344:	01670000 	cmneq	r7, r0
 348:	15000000 	strne	r0, [r0, #-0]
 34c:	00000988 	andeq	r0, r0, r8, lsl #19
 350:	00000634 	andeq	r0, r0, r4, lsr r6
 354:	06340002 	ldrteq	r0, [r4], -r2
 358:	00060000 	andeq	r0, r6, r0
 35c:	52010000 	andpl	r0, r1, #0, 0
 360:	0995160a 	ldmibeq	r5, {r1, r3, r9, sl, ip}
 364:	002a0000 	eoreq	r0, sl, r0
 368:	014b1200 	mrseq	r1, (UNDEF: 107)
 36c:	19010000 	stmdbne	r1, {}	; <UNPREDICTABLE>
 370:	0003bc06 	andeq	fp, r3, r6, lsl #24
 374:	0001fc00 	andeq	pc, r1, r0, lsl #24
 378:	9e9c0100 	fmllse	f0, f4, f0
 37c:	13000008 	movwne	r0, #8
 380:	19010076 	stmdbne	r1, {r1, r2, r4, r5, r6}
 384:	00005b19 	andeq	r5, r0, r9, lsl fp
 388:	00019400 	andeq	r9, r1, r0, lsl #8
 38c:	00017e00 	andeq	r7, r1, r0, lsl #28
 390:	09881400 	stmibeq	r8, {sl, ip}
 394:	03ca0000 	biceq	r0, sl, #0, 0
 398:	00010000 	andeq	r0, r1, r0
 39c:	000003ca 	andeq	r0, r0, sl, asr #7
 3a0:	00000006 	andeq	r0, r0, r6
 3a4:	b9181f01 	ldmdblt	r8, {r0, r8, r9, sl, fp, ip}
 3a8:	0d000003 	stceq	0, cr0, [r0, #-12]
 3ac:	00000995 	muleq	r0, r5, r9
 3b0:	00000222 	andeq	r0, r0, r2, lsr #4
 3b4:	00000220 	andeq	r0, r0, r0, lsr #4
 3b8:	09881400 	stmibeq	r8, {sl, ip}
 3bc:	040e0000 	streq	r0, [lr], #-0
 3c0:	00010000 	andeq	r0, r1, r0
 3c4:	0000040e 	andeq	r0, r0, lr, lsl #8
 3c8:	00000006 	andeq	r0, r0, r6
 3cc:	e1172a01 	tst	r7, r1, lsl #20
 3d0:	0d000003 	stceq	0, cr0, [r0, #-12]
 3d4:	00000995 	muleq	r0, r5, r9
 3d8:	00000239 	andeq	r0, r0, r9, lsr r2
 3dc:	00000237 	andeq	r0, r0, r7, lsr r2
 3e0:	09881400 	stmibeq	r8, {sl, ip}
 3e4:	04200000 	strteq	r0, [r0], #-0
 3e8:	00010000 	andeq	r0, r1, r0
 3ec:	00000420 	andeq	r0, r0, r0, lsr #8
 3f0:	00000008 	andeq	r0, r0, r8
 3f4:	09072001 	stmdbeq	r7, {r0, sp}
 3f8:	0d000004 	stceq	0, cr0, [r0, #-16]
 3fc:	00000995 	muleq	r0, r5, r9
 400:	00000250 	andeq	r0, r0, r0, asr r2
 404:	0000024e 	andeq	r0, r0, lr, asr #4
 408:	09881400 	stmibeq	r8, {sl, ip}
 40c:	04280000 	strteq	r0, [r8], #-0
 410:	00020000 	andeq	r0, r2, r0
 414:	00000428 	andeq	r0, r0, r8, lsr #8
 418:	00000006 	andeq	r0, r0, r6
 41c:	31132201 	tstcc	r3, r1, lsl #4
 420:	0d000004 	stceq	0, cr0, [r0, #-16]
 424:	00000995 	muleq	r0, r5, r9
 428:	00000267 	andeq	r0, r0, r7, ror #4
 42c:	00000265 	andeq	r0, r0, r5, ror #4
 430:	09881400 	stmibeq	r8, {sl, ip}
 434:	04580000 	ldrbeq	r0, [r8], #-0
 438:	00010000 	andeq	r0, r1, r0
 43c:	00000458 	andeq	r0, r0, r8, asr r4
 440:	00000006 	andeq	r0, r0, r6
 444:	59163501 	ldmdbpl	r6, {r0, r8, sl, ip, sp}
 448:	0d000004 	stceq	0, cr0, [r0, #-16]
 44c:	00000995 	muleq	r0, r5, r9
 450:	0000027e 	andeq	r0, r0, lr, ror r2
 454:	0000027c 	andeq	r0, r0, ip, ror r2
 458:	09881400 	stmibeq	r8, {sl, ip}
 45c:	04620000 	strbteq	r0, [r2], #-0
 460:	00010000 	andeq	r0, r1, r0
 464:	00000462 	andeq	r0, r0, r2, ror #8
 468:	00000006 	andeq	r0, r0, r6
 46c:	81172301 	tsthi	r7, r1, lsl #6
 470:	0d000004 	stceq	0, cr0, [r0, #-16]
 474:	00000995 	muleq	r0, r5, r9
 478:	00000295 	muleq	r0, r5, r2
 47c:	00000293 	muleq	r0, r3, r2
 480:	09881400 	stmibeq	r8, {sl, ip}
 484:	04700000 	ldrbteq	r0, [r0], #-0
 488:	00010000 	andeq	r0, r1, r0
 48c:	00000470 	andeq	r0, r0, r0, ror r4
 490:	00000006 	andeq	r0, r0, r6
 494:	a9172401 	ldmdbge	r7, {r0, sl, sp}
 498:	0d000004 	stceq	0, cr0, [r0, #-16]
 49c:	00000995 	muleq	r0, r5, r9
 4a0:	000002ac 	andeq	r0, r0, ip, lsr #5
 4a4:	000002aa 	andeq	r0, r0, sl, lsr #5
 4a8:	09881400 	stmibeq	r8, {sl, ip}
 4ac:	047e0000 	ldrbteq	r0, [lr], #-0
 4b0:	00010000 	andeq	r0, r1, r0
 4b4:	0000047e 	andeq	r0, r0, lr, ror r4
 4b8:	00000006 	andeq	r0, r0, r6
 4bc:	d1172501 	tstle	r7, r1, lsl #10
 4c0:	0d000004 	stceq	0, cr0, [r0, #-16]
 4c4:	00000995 	muleq	r0, r5, r9
 4c8:	000002c3 	andeq	r0, r0, r3, asr #5
 4cc:	000002c1 	andeq	r0, r0, r1, asr #5
 4d0:	09881400 	stmibeq	r8, {sl, ip}
 4d4:	048c0000 	streq	r0, [ip], #0
 4d8:	00010000 	andeq	r0, r1, r0
 4dc:	0000048c 	andeq	r0, r0, ip, lsl #9
 4e0:	00000006 	andeq	r0, r0, r6
 4e4:	f9172601 			; <UNDEFINED> instruction: 0xf9172601
 4e8:	0d000004 	stceq	0, cr0, [r0, #-16]
 4ec:	00000995 	muleq	r0, r5, r9
 4f0:	000002da 	ldrdeq	r0, [r0], -sl
 4f4:	000002d8 	ldrdeq	r0, [r0], -r8
 4f8:	09881400 	stmibeq	r8, {sl, ip}
 4fc:	04980000 	ldreq	r0, [r8], #0
 500:	00010000 	andeq	r0, r1, r0
 504:	00000498 	muleq	r0, r8, r4
 508:	00000006 	andeq	r0, r0, r6
 50c:	21172701 	tstcs	r7, r1, lsl #14
 510:	0d000005 	stceq	0, cr0, [r0, #-20]	; 0xffffffec
 514:	00000995 	muleq	r0, r5, r9
 518:	000002f1 	strdeq	r0, [r0], -r1
 51c:	000002ef 	andeq	r0, r0, pc, ror #5
 520:	09881400 	stmibeq	r8, {sl, ip}
 524:	04a40000 	strteq	r0, [r4], #0
 528:	00010000 	andeq	r0, r1, r0
 52c:	000004a4 	andeq	r0, r0, r4, lsr #9
 530:	00000006 	andeq	r0, r0, r6
 534:	49172801 	ldmdbmi	r7, {r0, fp, sp}
 538:	0d000005 	stceq	0, cr0, [r0, #-20]	; 0xffffffec
 53c:	00000995 	muleq	r0, r5, r9
 540:	00000308 	andeq	r0, r0, r8, lsl #6
 544:	00000306 	andeq	r0, r0, r6, lsl #6
 548:	09881400 	stmibeq	r8, {sl, ip}
 54c:	04b00000 	ldrteq	r0, [r0], #0
 550:	00010000 	andeq	r0, r1, r0
 554:	000004b0 			; <UNDEFINED> instruction: 0x000004b0
 558:	00000006 	andeq	r0, r0, r6
 55c:	71172901 	tstvc	r7, r1, lsl #18
 560:	0d000005 	stceq	0, cr0, [r0, #-20]	; 0xffffffec
 564:	00000995 	muleq	r0, r5, r9
 568:	0000031f 	andeq	r0, r0, pc, lsl r3
 56c:	0000031d 	andeq	r0, r0, sp, lsl r3
 570:	09881400 	stmibeq	r8, {sl, ip}
 574:	04ba0000 	ldrteq	r0, [sl], #0
 578:	00010000 	andeq	r0, r1, r0
 57c:	000004ba 			; <UNDEFINED> instruction: 0x000004ba
 580:	00000008 	andeq	r0, r0, r8
 584:	99072b01 	stmdbls	r7, {r0, r8, r9, fp, sp}
 588:	0d000005 	stceq	0, cr0, [r0, #-20]	; 0xffffffec
 58c:	00000995 	muleq	r0, r5, r9
 590:	00000336 	andeq	r0, r0, r6, lsr r3
 594:	00000334 	andeq	r0, r0, r4, lsr r3
 598:	09881400 	stmibeq	r8, {sl, ip}
 59c:	04c20000 	strbeq	r0, [r2], #0
 5a0:	00020000 	andeq	r0, r2, r0
 5a4:	000004c2 	andeq	r0, r0, r2, asr #9
 5a8:	00000006 	andeq	r0, r0, r6
 5ac:	c1122d01 	tstgt	r2, r1, lsl #26
 5b0:	0d000005 	stceq	0, cr0, [r0, #-20]	; 0xffffffec
 5b4:	00000995 	muleq	r0, r5, r9
 5b8:	0000034d 	andeq	r0, r0, sp, asr #6
 5bc:	0000034b 	andeq	r0, r0, fp, asr #6
 5c0:	09881400 	stmibeq	r8, {sl, ip}
 5c4:	04e60000 	strbteq	r0, [r6], #0
 5c8:	00010000 	andeq	r0, r1, r0
 5cc:	000004e6 	andeq	r0, r0, r6, ror #9
 5d0:	00000008 	andeq	r0, r0, r8
 5d4:	e9154001 	ldmdb	r5, {r0, lr}
 5d8:	0d000005 	stceq	0, cr0, [r0, #-20]	; 0xffffffec
 5dc:	00000995 	muleq	r0, r5, r9
 5e0:	00000364 	andeq	r0, r0, r4, ror #6
 5e4:	00000362 	andeq	r0, r0, r2, ror #6
 5e8:	09881400 	stmibeq	r8, {sl, ip}
 5ec:	04ee0000 	strbteq	r0, [lr], #0
 5f0:	00020000 	andeq	r0, r2, r0
 5f4:	000004ee 	andeq	r0, r0, lr, ror #9
 5f8:	00000006 	andeq	r0, r0, r6
 5fc:	11162e01 	tstne	r6, r1, lsl #28
 600:	0d000006 	stceq	0, cr0, [r0, #-24]	; 0xffffffe8
 604:	00000995 	muleq	r0, r5, r9
 608:	0000037b 	andeq	r0, r0, fp, ror r3
 60c:	00000379 	andeq	r0, r0, r9, ror r3
 610:	09881400 	stmibeq	r8, {sl, ip}
 614:	04f80000 	ldrbteq	r0, [r8], #0
 618:	00010000 	andeq	r0, r1, r0
 61c:	000004f8 	strdeq	r0, [r0], -r8
 620:	00000006 	andeq	r0, r0, r6
 624:	39162f01 	ldmdbcc	r6, {r0, r8, r9, sl, fp, sp}
 628:	0d000006 	stceq	0, cr0, [r0, #-24]	; 0xffffffe8
 62c:	00000995 	muleq	r0, r5, r9
 630:	00000392 	muleq	r0, r2, r3
 634:	00000390 	muleq	r0, r0, r3
 638:	09881400 	stmibeq	r8, {sl, ip}
 63c:	05020000 	streq	r0, [r2, #-0]
 640:	00010000 	andeq	r0, r1, r0
 644:	00000502 	andeq	r0, r0, r2, lsl #10
 648:	00000006 	andeq	r0, r0, r6
 64c:	61163001 	tstvs	r6, r1
 650:	0d000006 	stceq	0, cr0, [r0, #-24]	; 0xffffffe8
 654:	00000995 	muleq	r0, r5, r9
 658:	000003a9 	andeq	r0, r0, r9, lsr #7
 65c:	000003a7 	andeq	r0, r0, r7, lsr #7
 660:	09881400 	stmibeq	r8, {sl, ip}
 664:	050c0000 	streq	r0, [ip, #-0]
 668:	00010000 	andeq	r0, r1, r0
 66c:	0000050c 	andeq	r0, r0, ip, lsl #10
 670:	00000006 	andeq	r0, r0, r6
 674:	89163101 	ldmdbhi	r6, {r0, r8, ip, sp}
 678:	0d000006 	stceq	0, cr0, [r0, #-24]	; 0xffffffe8
 67c:	00000995 	muleq	r0, r5, r9
 680:	000003c0 	andeq	r0, r0, r0, asr #7
 684:	000003be 			; <UNDEFINED> instruction: 0x000003be
 688:	09881400 	stmibeq	r8, {sl, ip}
 68c:	05160000 	ldreq	r0, [r6, #-0]
 690:	00010000 	andeq	r0, r1, r0
 694:	00000516 	andeq	r0, r0, r6, lsl r5
 698:	00000006 	andeq	r0, r0, r6
 69c:	b1163201 	tstlt	r6, r1, lsl #4
 6a0:	0d000006 	stceq	0, cr0, [r0, #-24]	; 0xffffffe8
 6a4:	00000995 	muleq	r0, r5, r9
 6a8:	000003d7 	ldrdeq	r0, [r0], -r7
 6ac:	000003d5 	ldrdeq	r0, [r0], -r5
 6b0:	09881400 	stmibeq	r8, {sl, ip}
 6b4:	05200000 	streq	r0, [r0, #-0]!
 6b8:	00010000 	andeq	r0, r1, r0
 6bc:	00000520 	andeq	r0, r0, r0, lsr #10
 6c0:	00000006 	andeq	r0, r0, r6
 6c4:	d9163301 	ldmdble	r6, {r0, r8, r9, ip, sp}
 6c8:	0d000006 	stceq	0, cr0, [r0, #-24]	; 0xffffffe8
 6cc:	00000995 	muleq	r0, r5, r9
 6d0:	000003ee 	andeq	r0, r0, lr, ror #7
 6d4:	000003ec 	andeq	r0, r0, ip, ror #7
 6d8:	09881400 	stmibeq	r8, {sl, ip}
 6dc:	052a0000 	streq	r0, [sl, #-0]!
 6e0:	00010000 	andeq	r0, r1, r0
 6e4:	0000052a 	andeq	r0, r0, sl, lsr #10
 6e8:	00000006 	andeq	r0, r0, r6
 6ec:	01163401 	tsteq	r6, r1, lsl #8
 6f0:	0d000007 	stceq	0, cr0, [r0, #-28]	; 0xffffffe4
 6f4:	00000995 	muleq	r0, r5, r9
 6f8:	00000405 	andeq	r0, r0, r5, lsl #8
 6fc:	00000403 	andeq	r0, r0, r3, lsl #8
 700:	09881400 	stmibeq	r8, {sl, ip}
 704:	05340000 	ldreq	r0, [r4, #-0]!
 708:	00010000 	andeq	r0, r1, r0
 70c:	00000534 	andeq	r0, r0, r4, lsr r5
 710:	00000008 	andeq	r0, r0, r8
 714:	29073601 	stmdbcs	r7, {r0, r9, sl, ip, sp}
 718:	0d000007 	stceq	0, cr0, [r0, #-28]	; 0xffffffe4
 71c:	00000995 	muleq	r0, r5, r9
 720:	0000041c 	andeq	r0, r0, ip, lsl r4
 724:	0000041a 	andeq	r0, r0, sl, lsl r4
 728:	09881400 	stmibeq	r8, {sl, ip}
 72c:	053c0000 	ldreq	r0, [ip, #-0]!
 730:	00020000 	andeq	r0, r2, r0
 734:	0000053c 	andeq	r0, r0, ip, lsr r5
 738:	00000006 	andeq	r0, r0, r6
 73c:	51113801 	tstpl	r1, r1, lsl #16
 740:	0d000007 	stceq	0, cr0, [r0, #-28]	; 0xffffffe4
 744:	00000995 	muleq	r0, r5, r9
 748:	00000433 	andeq	r0, r0, r3, lsr r4
 74c:	00000431 	andeq	r0, r0, r1, lsr r4
 750:	09881400 	stmibeq	r8, {sl, ip}
 754:	05440000 	strbeq	r0, [r4, #-0]
 758:	00010000 	andeq	r0, r1, r0
 75c:	00000544 	andeq	r0, r0, r4, asr #10
 760:	00000008 	andeq	r0, r0, r8
 764:	79153901 	ldmdbvc	r5, {r0, r8, fp, ip, sp}
 768:	0d000007 	stceq	0, cr0, [r0, #-28]	; 0xffffffe4
 76c:	00000995 	muleq	r0, r5, r9
 770:	0000044a 	andeq	r0, r0, sl, asr #8
 774:	00000448 	andeq	r0, r0, r8, asr #8
 778:	09881400 	stmibeq	r8, {sl, ip}
 77c:	054c0000 	strbeq	r0, [ip, #-0]
 780:	00020000 	andeq	r0, r2, r0
 784:	0000054c 	andeq	r0, r0, ip, asr #10
 788:	00000008 	andeq	r0, r0, r8
 78c:	a1153a01 	tstge	r5, r1, lsl #20
 790:	0d000007 	stceq	0, cr0, [r0, #-28]	; 0xffffffe4
 794:	00000995 	muleq	r0, r5, r9
 798:	00000461 	andeq	r0, r0, r1, ror #8
 79c:	0000045f 	andeq	r0, r0, pc, asr r4
 7a0:	09881400 	stmibeq	r8, {sl, ip}
 7a4:	05540000 	ldrbeq	r0, [r4, #-0]
 7a8:	00020000 	andeq	r0, r2, r0
 7ac:	00000554 	andeq	r0, r0, r4, asr r5
 7b0:	00000008 	andeq	r0, r0, r8
 7b4:	c9153b01 	ldmdbgt	r5, {r0, r8, r9, fp, ip, sp}
 7b8:	0d000007 	stceq	0, cr0, [r0, #-28]	; 0xffffffe4
 7bc:	00000995 	muleq	r0, r5, r9
 7c0:	00000478 	andeq	r0, r0, r8, ror r4
 7c4:	00000476 	andeq	r0, r0, r6, ror r4
 7c8:	09881400 	stmibeq	r8, {sl, ip}
 7cc:	055c0000 	ldrbeq	r0, [ip, #-0]
 7d0:	00020000 	andeq	r0, r2, r0
 7d4:	0000055c 	andeq	r0, r0, ip, asr r5
 7d8:	00000008 	andeq	r0, r0, r8
 7dc:	f1153c01 			; <UNDEFINED> instruction: 0xf1153c01
 7e0:	0d000007 	stceq	0, cr0, [r0, #-28]	; 0xffffffe4
 7e4:	00000995 	muleq	r0, r5, r9
 7e8:	0000048f 	andeq	r0, r0, pc, lsl #9
 7ec:	0000048d 	andeq	r0, r0, sp, lsl #9
 7f0:	09881400 	stmibeq	r8, {sl, ip}
 7f4:	05640000 	strbeq	r0, [r4, #-0]!
 7f8:	00020000 	andeq	r0, r2, r0
 7fc:	00000564 	andeq	r0, r0, r4, ror #10
 800:	00000008 	andeq	r0, r0, r8
 804:	19153d01 	ldmdbne	r5, {r0, r8, sl, fp, ip, sp}
 808:	0d000008 	stceq	0, cr0, [r0, #-32]	; 0xffffffe0
 80c:	00000995 	muleq	r0, r5, r9
 810:	000004a6 	andeq	r0, r0, r6, lsr #9
 814:	000004a4 	andeq	r0, r0, r4, lsr #9
 818:	09881400 	stmibeq	r8, {sl, ip}
 81c:	056c0000 	strbeq	r0, [ip, #-0]!
 820:	00020000 	andeq	r0, r2, r0
 824:	0000056c 	andeq	r0, r0, ip, ror #10
 828:	00000008 	andeq	r0, r0, r8
 82c:	41153e01 	tstmi	r5, r1, lsl #28
 830:	0d000008 	stceq	0, cr0, [r0, #-32]	; 0xffffffe0
 834:	00000995 	muleq	r0, r5, r9
 838:	000004bd 			; <UNDEFINED> instruction: 0x000004bd
 83c:	000004bb 			; <UNDEFINED> instruction: 0x000004bb
 840:	09881400 	stmibeq	r8, {sl, ip}
 844:	05740000 	ldrbeq	r0, [r4, #-0]!
 848:	00020000 	andeq	r0, r2, r0
 84c:	00000574 	andeq	r0, r0, r4, ror r5
 850:	00000008 	andeq	r0, r0, r8
 854:	69153f01 	ldmdbvs	r5, {r0, r8, r9, sl, fp, ip, sp}
 858:	0d000008 	stceq	0, cr0, [r0, #-32]	; 0xffffffe0
 85c:	00000995 	muleq	r0, r5, r9
 860:	000004d4 	ldrdeq	r0, [r0], -r4
 864:	000004d2 	ldrdeq	r0, [r0], -r2
 868:	09881400 	stmibeq	r8, {sl, ip}
 86c:	057c0000 	ldrbeq	r0, [ip, #-0]!
 870:	00020000 	andeq	r0, r2, r0
 874:	0000057c 	andeq	r0, r0, ip, ror r5
 878:	0000003c 	andeq	r0, r0, ip, lsr r0
 87c:	8a074101 	bhi	1d0c88 <Stack_Size+0x1cfc88>
 880:	16000008 	strne	r0, [r0], -r8
 884:	00000995 	muleq	r0, r5, r9
 888:	1e170030 	mrcne	0, 0, r0, cr7, cr0, {1}
 88c:	39000004 	stmdbcc	r0, {r2}
 890:	0f000009 	svceq	0x00000009
 894:	03055001 	movweq	r5, #20481	; 0x5001
 898:	00000938 	andeq	r0, r0, r8, lsr r9
 89c:	d8120000 	ldmdale	r2, {}	; <UNPREDICTABLE>
 8a0:	01000000 	mrseq	r0, (UNDEF: 0)
 8a4:	03940611 	orrseq	r0, r4, #17825792	; 0x1100000
 8a8:	00280000 	eoreq	r0, r8, r0
 8ac:	9c010000 	stcls	0, cr0, [r1], {-0}
 8b0:	0000092d 	andeq	r0, r0, sp, lsr #18
 8b4:	01007618 	tsteq	r0, r8, lsl r6
 8b8:	005b1911 	subseq	r1, fp, r1, lsl r9
 8bc:	50010000 	andpl	r0, r1, r0
 8c0:	00013a19 	andeq	r3, r1, r9, lsl sl
 8c4:	20110100 	andscs	r0, r1, r0, lsl #2
 8c8:	00000075 	andeq	r0, r0, r5, ror r0
 8cc:	000004ef 	andeq	r0, r0, pc, ror #9
 8d0:	000004e9 	andeq	r0, r0, r9, ror #9
 8d4:	0003961a 	andeq	r9, r3, sl, lsl r6
 8d8:	00001c00 	andeq	r1, r0, r0, lsl #24
 8dc:	00690b00 	rsbeq	r0, r9, r0, lsl #22
 8e0:	750b1301 	strvc	r1, [fp, #-769]	; 0xfffffcff
 8e4:	23000000 	movwcs	r0, #0
 8e8:	1d000005 	stcne	0, cr0, [r0, #-20]	; 0xffffffec
 8ec:	1a000005 	bne	908 <I2C_STAT>
 8f0:	0000039c 	muleq	r0, ip, r3
 8f4:	00000012 	andeq	r0, r0, r2, lsl r0
 8f8:	0100630b 	tsteq	r0, fp, lsl #6
 8fc:	092d0814 	pusheq	{r2, r4, fp}
 900:	05550000 	ldrbeq	r0, [r5, #-0]
 904:	05530000 	ldrbeq	r0, [r3, #-0]
 908:	881b0000 	ldmdahi	fp, {}	; <UNPREDICTABLE>
 90c:	aa000009 	bge	938 <I2C_PRE_LO+0x18>
 910:	01000003 	tsteq	r0, r3
 914:	00001800 	andeq	r1, r0, r0, lsl #16
 918:	03150100 	tsteq	r5, #0
 91c:	0009950d 	andeq	r9, r9, sp, lsl #10
 920:	00056a00 	andeq	r6, r5, r0, lsl #20
 924:	00056800 	andeq	r6, r5, r0, lsl #16
 928:	00000000 	andeq	r0, r0, r0
 92c:	08010200 	stmdaeq	r1, {r9}
 930:	000000c0 	andeq	r0, r0, r0, asr #1
 934:	00092d08 	andeq	r2, r9, r8, lsl #26
 938:	000e1200 	andeq	r1, lr, r0, lsl #4
 93c:	0b010000 	bleq	40944 <Stack_Size+0x3f944>
 940:	00037c06 	andeq	r7, r3, r6, lsl #24
 944:	00001800 	andeq	r1, r0, r0, lsl #16
 948:	829c0100 	addshi	r0, ip, #0
 94c:	13000009 	movwne	r0, #9
 950:	0b010070 	bleq	40b18 <Stack_Size+0x3fb18>
 954:	00098218 	andeq	r8, r9, r8, lsl r2
 958:	00058600 	andeq	r8, r5, r0, lsl #12
 95c:	00058200 	andeq	r8, r5, r0, lsl #4
 960:	09881b00 	stmibeq	r8, {r8, r9, fp, ip}
 964:	03860000 	orreq	r0, r6, #0, 0
	...
 970:	0d030e01 	stceq	14, cr0, [r3, #-4]
 974:	00000995 	muleq	r0, r5, r9
 978:	000005a8 	andeq	r0, r0, r8, lsr #11
 97c:	000005a4 	andeq	r0, r0, r4, lsr #11
 980:	04070000 	streq	r0, [r7], #-0
 984:	00000934 	andeq	r0, r0, r4, lsr r9
 988:	0000e21c 	andeq	lr, r0, ip, lsl r2
 98c:	06030100 	streq	r0, [r3], -r0, lsl #2
 990:	0009a001 	andeq	sl, r9, r1
 994:	00631d00 	rsbeq	r1, r3, r0, lsl #26
 998:	5b170301 	blpl	5c15a4 <Stack_Size+0x5c05a4>
 99c:	00000000 	andeq	r0, r0, r0
 9a0:	0009881e 	andeq	r8, r9, lr, lsl r8
 9a4:	00037000 	andeq	r7, r3, r0
 9a8:	00000c00 	andeq	r0, r0, r0, lsl #24
 9ac:	0d9c0100 	ldfeqs	f0, [ip]
 9b0:	00000995 	muleq	r0, r5, r9
 9b4:	000005d6 	ldrdeq	r0, [r0], -r6
 9b8:	000005d2 	ldrdeq	r0, [r0], -r2
 9bc:	01040000 	mrseq	r0, (UNDEF: 4)
 9c0:	00040000 	andeq	r0, r4, r0
 9c4:	000001ee 	andeq	r0, r0, lr, ror #3
 9c8:	00140104 	andseq	r0, r4, r4, lsl #2
 9cc:	cc0c0000 	stcgt	0, cr0, [ip], {-0}
 9d0:	6c000001 	stcvs	0, cr0, [r0], {1}
 9d4:	80000001 	andhi	r0, r0, r1
 9d8:	1c000006 	stcne	0, cr0, [r0], {6}
 9dc:	41000000 	mrsmi	r0, (UNDEF: 0)
 9e0:	02000007 	andeq	r0, r0, #7, 0
 9e4:	00b90601 	adcseq	r0, r9, r1, lsl #12
 9e8:	02020000 	andeq	r0, r2, #0, 0
 9ec:	00014105 	andeq	r4, r1, r5, lsl #2
 9f0:	05040200 	streq	r0, [r4, #-512]	; 0xfffffe00
 9f4:	00000128 	andeq	r0, r0, r8, lsr #2
 9f8:	23050802 	movwcs	r0, #22530	; 0x5802
 9fc:	02000001 	andeq	r0, r0, #1, 0
 a00:	00b70801 	adcseq	r0, r7, r1, lsl #16
 a04:	02020000 	andeq	r0, r2, #0, 0
 a08:	0000c507 	andeq	ip, r0, r7, lsl #10
 a0c:	01550300 	cmpeq	r5, r0, lsl #6
 a10:	34020000 	strcc	r0, [r2], #-0
 a14:	00005b19 	andeq	r5, r0, r9, lsl fp
 a18:	07040200 	streq	r0, [r4, -r0, lsl #4]
 a1c:	00000109 	andeq	r0, r0, r9, lsl #2
 a20:	04070802 	streq	r0, [r7], #-2050	; 0xfffff7fe
 a24:	04000001 	streq	r0, [r0], #-1
 a28:	6e690504 	cdpvs	5, 6, cr0, cr9, cr4, {0}
 a2c:	04020074 	streq	r0, [r2], #-116	; 0xffffff8c
 a30:	00010e07 	andeq	r0, r1, r7, lsl #28
 a34:	00700500 	rsbseq	r0, r0, r0, lsl #10
 a38:	c2060000 	andgt	r0, r6, #0, 0
 a3c:	01000001 	tsteq	r0, r1
 a40:	00941f03 	addseq	r1, r4, r3, lsl #30
 a44:	03050000 	movweq	r0, #20480	; 0x5000
 a48:	00000904 	andeq	r0, r0, r4, lsl #18
 a4c:	00770407 	rsbseq	r0, r7, r7, lsl #8
 a50:	8e080000 	cdphi	0, 0, cr0, cr8, cr0, {0}
 a54:	06000000 	streq	r0, [r0], -r0
 a58:	000001b9 			; <UNDEFINED> instruction: 0x000001b9
 a5c:	941f0601 	ldrls	r0, [pc], #-1537	; a64 <_etext+0x104>
 a60:	05000000 	streq	r0, [r0, #-0]
 a64:	00090003 	andeq	r0, r9, r3
 a68:	01970900 	orrseq	r0, r7, r0, lsl #18
 a6c:	13010000 	movwne	r0, #4096	; 0x1000
 a70:	00069406 	andeq	r9, r6, r6, lsl #8
 a74:	00000800 	andeq	r0, r0, r0, lsl #16
 a78:	d09c0100 	addsle	r0, ip, r0, lsl #2
 a7c:	0a000000 	beq	a84 <_etext+0x124>
 a80:	000001de 	ldrdeq	r0, [r0], -lr
 a84:	701e1301 	andsvc	r1, lr, r1, lsl #6
 a88:	01000000 	mrseq	r0, (UNDEF: 0)
 a8c:	a20b0050 	andge	r0, fp, #80, 0	; 0x50
 a90:	01000001 	tsteq	r0, r1
 a94:	00700e0e 	rsbseq	r0, r0, lr, lsl #28
 a98:	068c0000 	streq	r0, [ip], r0
 a9c:	00080000 	andeq	r0, r8, r0
 aa0:	9c010000 	stcls	0, cr0, [r1], {-0}
 aa4:	0001ac0c 	andeq	sl, r1, ip, lsl #24
 aa8:	06090100 	streq	r0, [r9], -r0, lsl #2
 aac:	00000680 	andeq	r0, r0, r0, lsl #13
 ab0:	0000000c 	andeq	r0, r0, ip
 ab4:	640d9c01 	strvs	r9, [sp], #-3073	; 0xfffff3ff
 ab8:	01007269 	tsteq	r0, r9, ror #4
 abc:	00702009 	rsbseq	r2, r0, r9
 ac0:	50010000 	andpl	r0, r1, r0
 ac4:	021b0000 	andseq	r0, fp, #0, 0
 ac8:	00040000 	andeq	r0, r4, r0
 acc:	000002c3 	andeq	r0, r0, r3, asr #5
 ad0:	00140104 	andseq	r0, r4, r4, lsl #2
 ad4:	4d0c0000 	stcmi	0, cr0, [ip, #-0]
 ad8:	6c000002 	stcvs	0, cr0, [r0], {2}
 adc:	9c000001 	stcls	0, cr0, [r0], {1}
 ae0:	08000006 	stmdaeq	r0, {r1, r2}
 ae4:	11000002 	tstne	r0, r2
 ae8:	02000008 	andeq	r0, r0, #8, 0
 aec:	000001e3 	andeq	r0, r0, r3, ror #3
 af0:	3d201e02 	stccc	14, cr1, [r0, #-8]!
 af4:	05000000 	streq	r0, [r0, #-0]
 af8:	00092003 	andeq	r2, r9, r3
 afc:	49040300 	stmdbmi	r4, {r8, r9}
 b00:	04000000 	streq	r0, [r0], #-0
 b04:	00000037 	andeq	r0, r0, r7, lsr r0
 b08:	b7080105 	strlt	r0, [r8, -r5, lsl #2]
 b0c:	06000000 	streq	r0, [r0], -r0
 b10:	00000042 	andeq	r0, r0, r2, asr #32
 b14:	00023202 	andeq	r3, r2, r2, lsl #4
 b18:	201f0200 	andscs	r0, pc, r0, lsl #4
 b1c:	0000003d 	andeq	r0, r0, sp, lsr r0
 b20:	091c0305 	ldmdbeq	ip, {r0, r2, r8, r9}
 b24:	ee020000 	cdp	0, 0, cr0, cr2, cr0, {0}
 b28:	02000001 	andeq	r0, r0, #1, 0
 b2c:	003d2020 	eorseq	r2, sp, r0, lsr #32
 b30:	03050000 	movweq	r0, #20480	; 0x5000
 b34:	00000918 	andeq	r0, r0, r8, lsl r9
 b38:	00024602 	andeq	r4, r2, r2, lsl #12
 b3c:	20210200 	eorcs	r0, r1, r0, lsl #4
 b40:	0000003d 	andeq	r0, r0, sp, lsr r0
 b44:	09140305 	ldmdbeq	r4, {r0, r2, r8, r9}
 b48:	1d020000 	stcne	0, cr0, [r2, #-0]
 b4c:	02000002 	andeq	r0, r0, #2, 0
 b50:	003d2022 	eorseq	r2, sp, r2, lsr #32
 b54:	03050000 	movweq	r0, #20480	; 0x5000
 b58:	00000910 	andeq	r0, r0, r0, lsl r9
 b5c:	00022a02 	andeq	r2, r2, r2, lsl #20
 b60:	20230200 	eorcs	r0, r3, r0, lsl #4
 b64:	0000003d 	andeq	r0, r0, sp, lsr r0
 b68:	090c0305 	stmdbeq	ip, {r0, r2, r8, r9}
 b6c:	05020000 	streq	r0, [r2, #-0]
 b70:	02000002 	andeq	r0, r0, #2, 0
 b74:	003d2024 	eorseq	r2, sp, r4, lsr #32
 b78:	03050000 	movweq	r0, #20480	; 0x5000
 b7c:	00000908 	andeq	r0, r0, r8, lsl #18
 b80:	0001f707 	andeq	pc, r1, r7, lsl #14
 b84:	0f7c0100 	svceq	0x007c0100
 b88:	00000042 	andeq	r0, r0, r2, asr #32
 b8c:	00000828 	andeq	r0, r0, r8, lsr #16
 b90:	0000007c 	andeq	r0, r0, ip, ror r0
 b94:	01079c01 	tsteq	r7, r1, lsl #24
 b98:	5d080000 	stcpl	0, cr0, [r8, #-0]
 b9c:	01000002 	tsteq	r0, r2
 ba0:	00422b7c 	subeq	r2, r2, ip, ror fp
 ba4:	05fb0000 	ldrbeq	r0, [fp, #0]!
 ba8:	05f70000 	ldrbeq	r0, [r7, #0]!
 bac:	24080000 	strcs	r0, [r8], #-0
 bb0:	01000002 	tsteq	r0, r2
 bb4:	0042407c 	subeq	r4, r2, ip, ror r0
 bb8:	06200000 	strteq	r0, [r0], -r0
 bbc:	061c0000 	ldreq	r0, [ip], -r0
 bc0:	79090000 	stmdbvc	r9, {}	; <UNPREDICTABLE>
 bc4:	127d0100 	rsbsne	r0, sp, #0
 bc8:	0000010e 	andeq	r0, r0, lr, lsl #2
 bcc:	05040a00 	streq	r0, [r4, #-2560]	; 0xfffff600
 bd0:	00746e69 	rsbseq	r6, r4, r9, ror #28
 bd4:	00010706 	andeq	r0, r1, r6, lsl #14
 bd8:	020e0700 	andeq	r0, lr, #0, 14
 bdc:	2b010000 	blcs	40be4 <Stack_Size+0x3fbe4>
 be0:	0001070c 	andeq	r0, r1, ip, lsl #14
 be4:	00070400 	andeq	r0, r7, r0, lsl #8
 be8:	00012400 	andeq	r2, r1, r0, lsl #8
 bec:	999c0100 	ldmibls	ip, {r8}
 bf0:	08000001 	stmdaeq	r0, {r0}
 bf4:	0000025d 	andeq	r0, r0, sp, asr r2
 bf8:	42292b01 	eormi	r2, r9, #1024	; 0x400
 bfc:	45000000 	strmi	r0, [r0, #-0]
 c00:	41000006 	tstmi	r0, r6
 c04:	08000006 	stmdaeq	r0, {r1, r2}
 c08:	00000224 	andeq	r0, r0, r4, lsr #4
 c0c:	423e2b01 	eorsmi	r2, lr, #1024	; 0x400
 c10:	6e000000 	cdpvs	0, 0, cr0, cr0, cr0, {0}
 c14:	66000006 	strvs	r0, [r0], -r6
 c18:	08000006 	stmdaeq	r0, {r1, r2}
 c1c:	000001de 	ldrdeq	r0, [r0], -lr
 c20:	99542b01 	ldmdbls	r4, {r0, r8, r9, fp, sp}^
 c24:	ae000001 	cdpge	0, 0, cr0, cr0, cr1, {0}
 c28:	aa000006 	bge	c48 <_etext+0x2e8>
 c2c:	09000006 	stmdbeq	r0, {r1, r2}
 c30:	2c010079 	stccs	0, cr0, [r1], {121}	; 0x79
 c34:	00010e12 	andeq	r0, r1, r2, lsl lr
 c38:	656c0b00 	strbvs	r0, [ip, #-2816]!	; 0xfffff500
 c3c:	2f01006e 	svccs	0x0001006e
 c40:	00010709 	andeq	r0, r1, r9, lsl #14
 c44:	600c0300 	andvs	r0, ip, r0, lsl #6
 c48:	0d000000 	stceq	0, cr0, [r0, #-0]
 c4c:	57010069 	strpl	r0, [r1, -r9, rrx]
 c50:	0001070e 	andeq	r0, r1, lr, lsl #14
 c54:	0006dd00 	andeq	sp, r6, r0, lsl #26
 c58:	0006cf00 	andeq	ip, r6, r0, lsl #30
 c5c:	03000000 	movweq	r0, #0
 c60:	00004204 	andeq	r4, r0, r4, lsl #4
 c64:	02630700 	rsbeq	r0, r3, #0, 14
 c68:	15010000 	strne	r0, [r1, #-0]
 c6c:	00010705 	andeq	r0, r1, r5, lsl #14
 c70:	0006bc00 	andeq	fp, r6, r0, lsl #24
 c74:	00004800 	andeq	r4, r0, r0, lsl #16
 c78:	ec9c0100 	ldfs	f0, [ip], {0}
 c7c:	08000001 	stmdaeq	r0, {r0}
 c80:	0000025d 	andeq	r0, r0, sp, asr r2
 c84:	42211501 	eormi	r1, r1, #4194304	; 0x400000
 c88:	3b000000 	blcc	c90 <_etext+0x330>
 c8c:	37000007 	strcc	r0, [r0, -r7]
 c90:	08000007 	stmdaeq	r0, {r0, r1, r2}
 c94:	000001dd 	ldrdeq	r0, [r0], -sp
 c98:	42361501 	eorsmi	r1, r6, #4194304	; 0x400000
 c9c:	60000000 	andvs	r0, r0, r0
 ca0:	5c000007 	stcpl	0, cr0, [r0], {7}
 ca4:	09000007 	stmdbeq	r0, {r0, r1, r2}
 ca8:	16010079 			; <UNDEFINED> instruction: 0x16010079
 cac:	00010e12 	andeq	r0, r1, r2, lsl lr
 cb0:	3d0e0000 	stccc	0, cr0, [lr, #-0]
 cb4:	01000002 	tsteq	r0, r2
 cb8:	069c060c 	ldreq	r0, [ip], ip, lsl #12
 cbc:	00200000 	eoreq	r0, r0, r0
 cc0:	9c010000 	stcls	0, cr0, [r1], {-0}
 cc4:	00000217 	andeq	r0, r0, r7, lsl r2
 cc8:	6572700f 	ldrbvs	r7, [r2, #-15]!
 ccc:	1c0c0100 	stfnes	f0, [ip], {-0}
 cd0:	00000217 	andeq	r0, r0, r7, lsl r2
 cd4:	00000785 	andeq	r0, r0, r5, lsl #15
 cd8:	00000781 	andeq	r0, r0, r1, lsl #15
 cdc:	07040500 	streq	r0, [r4, -r0, lsl #10]
 ce0:	0000010e 	andeq	r0, r0, lr, lsl #2
 ce4:	0001c300 	andeq	ip, r1, r0, lsl #6
 ce8:	b4000400 	strlt	r0, [r0], #-1024	; 0xfffffc00
 cec:	04000003 	streq	r0, [r0], #-3
 cf0:	00001401 	andeq	r1, r0, r1, lsl #8
 cf4:	02710c00 	rsbseq	r0, r1, #0, 24
 cf8:	016c0000 	cmneq	ip, r0
 cfc:	08a40000 	stmiaeq	r4!, {}	; <UNPREDICTABLE>
 d00:	003c0000 	eorseq	r0, ip, r0
 d04:	0b9c0000 	bleq	fe700d0c <__StackLimit+0xde6fcd0c>
 d08:	01020000 	mrseq	r0, (UNDEF: 2)
 d0c:	0000b906 	andeq	fp, r0, r6, lsl #18
 d10:	05020200 	streq	r0, [r2, #-512]	; 0xfffffe00
 d14:	00000141 	andeq	r0, r0, r1, asr #2
 d18:	28050402 	stmdacs	r5, {r1, sl}
 d1c:	02000001 	andeq	r0, r0, #1, 0
 d20:	01230508 			; <UNDEFINED> instruction: 0x01230508
 d24:	01020000 	mrseq	r0, (UNDEF: 2)
 d28:	0000b708 	andeq	fp, r0, r8, lsl #14
 d2c:	07020200 	streq	r0, [r2, -r0, lsl #4]
 d30:	000000c5 	andeq	r0, r0, r5, asr #1
 d34:	00015503 	andeq	r5, r1, r3, lsl #10
 d38:	19340600 	ldmdbne	r4!, {r9, sl}
 d3c:	0000005b 	andeq	r0, r0, fp, asr r0
 d40:	09070402 	stmdbeq	r7, {r1, sl}
 d44:	02000001 	andeq	r0, r0, #1, 0
 d48:	01040708 	tsteq	r4, r8, lsl #14
 d4c:	04040000 	streq	r0, [r4], #-0
 d50:	746e6905 	strbtvc	r6, [lr], #-2309	; 0xfffff6fb
 d54:	07040200 	streq	r0, [r4, -r0, lsl #4]
 d58:	0000010e 	andeq	r0, r0, lr, lsl #2
 d5c:	00007005 	andeq	r7, r0, r5
 d60:	00000600 	andeq	r0, r0, r0, lsl #12
 d64:	0b020000 	bleq	80d6c <Stack_Size+0x7fd6c>
 d68:	0000941f 	andeq	r9, r0, pc, lsl r4
 d6c:	00030500 	andeq	r0, r3, r0, lsl #10
 d70:	07200000 	streq	r0, [r0, -r0]!
 d74:	00007704 	andeq	r7, r0, r4, lsl #14
 d78:	008e0800 	addeq	r0, lr, r0, lsl #16
 d7c:	5e060000 	cdppl	0, 0, cr0, cr6, cr0, {0}
 d80:	02000001 	andeq	r0, r0, #1, 0
 d84:	00941f0c 	addseq	r1, r4, ip, lsl #30
 d88:	03050000 	movweq	r0, #20480	; 0x5000
 d8c:	20000008 	andcs	r0, r0, r8
 d90:	0000ea06 	andeq	lr, r0, r6, lsl #20
 d94:	1f0d0200 	svcne	0x000d0200
 d98:	00000094 	muleq	r0, r4, r0
 d9c:	00040305 	andeq	r0, r4, r5, lsl #6
 da0:	b2092000 	andlt	r2, r9, #0, 0
 da4:	03000000 	movweq	r0, #0
 da8:	004f1117 	subeq	r1, pc, r7, lsl r1	; <UNPREDICTABLE>
 dac:	770a0000 	strvc	r0, [sl, -r0]
 db0:	01000002 	tsteq	r0, r2
 db4:	08a40607 	stmiaeq	r4!, {r0, r1, r2, r9, sl}
 db8:	003c0000 	eorseq	r0, ip, r0
 dbc:	9c010000 	stcls	0, cr0, [r1], {-0}
 dc0:	00000186 	andeq	r0, r0, r6, lsl #3
 dc4:	0100690b 	tsteq	r0, fp, lsl #18
 dc8:	0069060a 	rsbeq	r0, r9, sl, lsl #12
 dcc:	6a0c0000 	bvs	300dd4 <Stack_Size+0x2ffdd4>
 dd0:	090a0100 	stmdbeq	sl, {r8}
 dd4:	00000069 	andeq	r0, r0, r9, rrx
 dd8:	000007b6 			; <UNDEFINED> instruction: 0x000007b6
 ddc:	000007a6 	andeq	r0, r0, r6, lsr #15
 de0:	0100780b 	tsteq	r0, fp, lsl #16
 de4:	0069060b 	rsbeq	r0, r9, fp, lsl #12
 de8:	760b0000 	strvc	r0, [fp], -r0
 dec:	090b0100 	stmdbeq	fp, {r8}
 df0:	00000069 	andeq	r0, r0, r9, rrx
 df4:	0001de0d 	andeq	sp, r1, sp, lsl #28
 df8:	130c0100 	movwne	r0, #49408	; 0xc100
 dfc:	00000186 	andeq	r0, r0, r6, lsl #3
 e00:	0e749102 	expeqs	f1, f2
 e04:	000008ae 	andeq	r0, r0, lr, lsr #17
 e08:	00000196 	muleq	r0, r6, r1
 e0c:	00000131 	andeq	r0, r0, r1, lsr r1
 e10:	0150010f 	cmpeq	r0, pc, lsl #2
 e14:	b40e0030 	strlt	r0, [lr], #-48	; 0xffffffd0
 e18:	a2000008 	andge	r0, r0, #8, 0
 e1c:	44000001 	strmi	r0, [r0], #-1
 e20:	0f000001 	svceq	0x00000001
 e24:	3f015001 	svccc	0x00015001
 e28:	08c20e00 	stmiaeq	r2, {r9, sl, fp}^
 e2c:	01ae0000 			; <UNDEFINED> instruction: 0x01ae0000
 e30:	01570000 	cmpeq	r7, r0
 e34:	010f0000 	mrseq	r0, CPSR
 e38:	00430150 	subeq	r0, r3, r0, asr r1
 e3c:	0008cc0e 	andeq	ip, r8, lr, lsl #24
 e40:	0001ba00 	andeq	fp, r1, r0, lsl #20
 e44:	00017600 	andeq	r7, r1, r0, lsl #12
 e48:	50010f00 	andpl	r0, r1, r0, lsl #30
 e4c:	0fa20902 	svceq	0x00a20902
 e50:	32015101 	andcc	r5, r1, #1073741824	; 0x40000000
 e54:	0252010f 	subseq	r0, r2, #-1073741821	; 0xc0000003
 e58:	10007491 	mulne	r0, r1, r4
 e5c:	000008d2 	ldrdeq	r0, [r0], -r2
 e60:	000001a2 	andeq	r0, r0, r2, lsr #3
 e64:	0150010f 	cmpeq	r0, pc, lsl #2
 e68:	1100003a 	tstne	r0, sl, lsr r0
 e6c:	00000041 	andeq	r0, r0, r1, asr #32
 e70:	00000196 	muleq	r0, r6, r1
 e74:	00007012 	andeq	r7, r0, r2, lsl r0
 e78:	13000100 	movwne	r0, #256	; 0x100
 e7c:	000001ac 	andeq	r0, r0, ip, lsr #3
 e80:	000001ac 	andeq	r0, r0, ip, lsr #3
 e84:	13060604 	movwne	r0, #26116	; 0x6604
 e88:	00000197 	muleq	r0, r7, r1
 e8c:	00000197 	muleq	r0, r7, r1
 e90:	13060804 	movwne	r0, #26628	; 0x6804
 e94:	0000023d 	andeq	r0, r0, sp, lsr r2
 e98:	0000023d 	andeq	r0, r0, sp, lsr r2
 e9c:	13060605 	movwne	r0, #26117	; 0x6605
 ea0:	0000020e 	andeq	r0, r0, lr, lsl #4
 ea4:	0000020e 	andeq	r0, r0, lr, lsl #4
 ea8:	00050805 	andeq	r0, r5, r5, lsl #16

Disassembly of section .debug_abbrev:

00000000 <.debug_abbrev>:
   0:	25011101 	strcs	r1, [r1, #-257]	; 0xfffffeff
   4:	030b130e 	movweq	r1, #45838	; 0xb30e
   8:	110e1b0e 	tstne	lr, lr, lsl #22
   c:	10061201 	andne	r1, r6, r1, lsl #4
  10:	02000017 	andeq	r0, r0, #23, 0
  14:	0b0b0024 	bleq	2c00ac <Stack_Size+0x2bf0ac>
  18:	0e030b3e 	vmoveq.16	d3[0], r0
  1c:	16030000 	strne	r0, [r3], -r0
  20:	3a0e0300 	bcc	380c28 <Stack_Size+0x37fc28>
  24:	390b3b0b 	stmdbcc	fp, {r0, r1, r3, r8, r9, fp, ip, sp}
  28:	0013490b 	andseq	r4, r3, fp, lsl #18
  2c:	00240400 	eoreq	r0, r4, r0, lsl #8
  30:	0b3e0b0b 	bleq	f82c64 <Stack_Size+0xf81c64>
  34:	00000803 	andeq	r0, r0, r3, lsl #16
  38:	49003505 	stmdbmi	r0, {r0, r2, r8, sl, ip, sp}
  3c:	06000013 			; <UNDEFINED> instruction: 0x06000013
  40:	0e030034 	mcreq	0, 0, r0, cr3, cr4, {1}
  44:	0b3b0b3a 	bleq	ec2d34 <Stack_Size+0xec1d34>
  48:	13490b39 	movtne	r0, #39737	; 0x9b39
  4c:	1802193f 	stmdane	r2, {r0, r1, r2, r3, r4, r5, r8, fp, ip}
  50:	0f070000 	svceq	0x00070000
  54:	490b0b00 	stmdbmi	fp, {r8, r9, fp}
  58:	08000013 	stmdaeq	r0, {r0, r1, r4}
  5c:	13490026 	movtne	r0, #36902	; 0x9026
  60:	34090000 	strcc	r0, [r9], #-0
  64:	3a0e0300 	bcc	380c6c <Stack_Size+0x37fc6c>
  68:	390b3b0b 	stmdbcc	fp, {r0, r1, r3, r8, r9, fp, ip, sp}
  6c:	3f13490b 	svccc	0x0013490b
  70:	00193c19 	andseq	r3, r9, r9, lsl ip
  74:	012e0a00 			; <UNDEFINED> instruction: 0x012e0a00
  78:	0e03193f 			; <UNDEFINED> instruction: 0x0e03193f
  7c:	0b3b0b3a 	bleq	ec2d6c <Stack_Size+0xec1d6c>
  80:	01110b39 	tsteq	r1, r9, lsr fp
  84:	18400612 	stmdane	r0, {r1, r4, r9, sl}^
  88:	01194297 			; <UNDEFINED> instruction: 0x01194297
  8c:	0b000013 	bleq	e0 <Heap_Size+0xe0>
  90:	08030034 	stmdaeq	r3, {r2, r4, r5}
  94:	0b3b0b3a 	bleq	ec2d84 <Stack_Size+0xec1d84>
  98:	13490b39 	movtne	r0, #39737	; 0x9b39
  9c:	42b71702 	adcsmi	r1, r7, #524288	; 0x80000
  a0:	0c000017 	stceq	0, cr0, [r0], {23}
  a4:	1331011d 	teqne	r1, #1073741831	; 0x40000007
  a8:	42b80152 	adcsmi	r0, r8, #-2147483628	; 0x80000014
  ac:	58175505 	ldmdapl	r7, {r0, r2, r8, sl, ip, lr}
  b0:	570b590b 	strpl	r5, [fp, -fp, lsl #18]
  b4:	0013010b 	andseq	r0, r3, fp, lsl #2
  b8:	00050d00 	andeq	r0, r5, r0, lsl #26
  bc:	17021331 	smladxne	r2, r1, r3, r1
  c0:	001742b7 			; <UNDEFINED> instruction: 0x001742b7
  c4:	82890e00 	addhi	r0, r9, #0, 28
  c8:	01110101 	tsteq	r1, r1, lsl #2
  cc:	13011331 	movwne	r1, #4913	; 0x1331
  d0:	8a0f0000 	bhi	3c00d8 <Stack_Size+0x3bf0d8>
  d4:	02000182 	andeq	r0, r0, #-2147483616	; 0x80000020
  d8:	18429118 	stmdane	r2, {r3, r4, r8, ip, pc}^
  dc:	89100000 	ldmdbhi	r0, {}	; <UNPREDICTABLE>
  e0:	11000182 	smlabbne	r0, r2, r1, r0
  e4:	00133101 	andseq	r3, r3, r1, lsl #2
  e8:	012e1100 			; <UNDEFINED> instruction: 0x012e1100
  ec:	0e03193f 			; <UNDEFINED> instruction: 0x0e03193f
  f0:	0b3b0b3a 	bleq	ec2de0 <Stack_Size+0xec1de0>
  f4:	13490b39 	movtne	r0, #39737	; 0x9b39
  f8:	06120111 			; <UNDEFINED> instruction: 0x06120111
  fc:	42971840 	addsmi	r1, r7, #64, 16	; 0x400000
 100:	00130119 	andseq	r0, r3, r9, lsl r1
 104:	012e1200 			; <UNDEFINED> instruction: 0x012e1200
 108:	0e03193f 			; <UNDEFINED> instruction: 0x0e03193f
 10c:	0b3b0b3a 	bleq	ec2dfc <Stack_Size+0xec1dfc>
 110:	19270b39 	stmdbne	r7!, {r0, r3, r4, r5, r8, r9, fp}
 114:	06120111 			; <UNDEFINED> instruction: 0x06120111
 118:	42971840 	addsmi	r1, r7, #64, 16	; 0x400000
 11c:	00130119 	andseq	r0, r3, r9, lsl r1
 120:	00051300 	andeq	r1, r5, r0, lsl #6
 124:	0b3a0803 	bleq	e82138 <Stack_Size+0xe81138>
 128:	0b390b3b 	bleq	e42e1c <Stack_Size+0xe41e1c>
 12c:	17021349 	strne	r1, [r2, -r9, asr #6]
 130:	001742b7 			; <UNDEFINED> instruction: 0x001742b7
 134:	011d1400 	tsteq	sp, r0, lsl #8
 138:	01521331 	cmpeq	r2, r1, lsr r3
 13c:	110542b8 			; <UNDEFINED> instruction: 0x110542b8
 140:	58061201 	stmdapl	r6, {r0, r9, ip}
 144:	570b590b 	strpl	r5, [fp, -fp, lsl #18]
 148:	0013010b 	andseq	r0, r3, fp, lsl #2
 14c:	011d1500 	tsteq	sp, r0, lsl #10
 150:	01521331 	cmpeq	r2, r1, lsr r3
 154:	110542b8 			; <UNDEFINED> instruction: 0x110542b8
 158:	58061201 	stmdapl	r6, {r0, r9, ip}
 15c:	570b590b 	strpl	r5, [fp, -fp, lsl #18]
 160:	1600000b 	strne	r0, [r0], -fp
 164:	13310005 	teqne	r1, #5, 0
 168:	00000b1c 	andeq	r0, r0, ip, lsl fp
 16c:	01828917 	orreq	r8, r2, r7, lsl r9
 170:	31011101 	tstcc	r1, r1, lsl #2
 174:	18000013 	stmdane	r0, {r0, r1, r4}
 178:	08030005 	stmdaeq	r3, {r0, r2}
 17c:	0b3b0b3a 	bleq	ec2e6c <Stack_Size+0xec1e6c>
 180:	13490b39 	movtne	r0, #39737	; 0x9b39
 184:	00001802 	andeq	r1, r0, r2, lsl #16
 188:	03000519 	movweq	r0, #1305	; 0x519
 18c:	3b0b3a0e 	blcc	2ce9cc <Stack_Size+0x2cd9cc>
 190:	490b390b 	stmdbmi	fp, {r0, r1, r3, r8, fp, ip, sp}
 194:	b7170213 			; <UNDEFINED> instruction: 0xb7170213
 198:	00001742 	andeq	r1, r0, r2, asr #14
 19c:	11010b1a 	tstne	r1, sl, lsl fp
 1a0:	00061201 	andeq	r1, r6, r1, lsl #4
 1a4:	011d1b00 	tsteq	sp, r0, lsl #22
 1a8:	01521331 	cmpeq	r2, r1, lsr r3
 1ac:	550542b8 	strpl	r4, [r5, #-696]	; 0xfffffd48
 1b0:	590b5817 	stmdbpl	fp, {r0, r1, r2, r4, fp, ip, lr}
 1b4:	000b570b 	andeq	r5, fp, fp, lsl #14
 1b8:	012e1c00 			; <UNDEFINED> instruction: 0x012e1c00
 1bc:	0e03193f 			; <UNDEFINED> instruction: 0x0e03193f
 1c0:	0b3b0b3a 	bleq	ec2eb0 <Stack_Size+0xec1eb0>
 1c4:	19270b39 	stmdbne	r7!, {r0, r3, r4, r5, r8, r9, fp}
 1c8:	13010b20 	movwne	r0, #6944	; 0x1b20
 1cc:	051d0000 	ldreq	r0, [sp, #-0]
 1d0:	3a080300 	bcc	200dd8 <Stack_Size+0x1ffdd8>
 1d4:	390b3b0b 	stmdbcc	fp, {r0, r1, r3, r8, r9, fp, ip, sp}
 1d8:	0013490b 	andseq	r4, r3, fp, lsl #18
 1dc:	012e1e00 			; <UNDEFINED> instruction: 0x012e1e00
 1e0:	01111331 	tsteq	r1, r1, lsr r3
 1e4:	18400612 	stmdane	r0, {r1, r4, r9, sl}^
 1e8:	00194297 	mulseq	r9, r7, r2
 1ec:	11010000 	mrsne	r0, (UNDEF: 1)
 1f0:	130e2501 	movwne	r2, #58625	; 0xe501
 1f4:	1b0e030b 	blne	380e28 <Stack_Size+0x37fe28>
 1f8:	1201110e 	andne	r1, r1, #-2147483645	; 0x80000003
 1fc:	00171006 	andseq	r1, r7, r6
 200:	00240200 	eoreq	r0, r4, r0, lsl #4
 204:	0b3e0b0b 	bleq	f82e38 <Stack_Size+0xf81e38>
 208:	00000e03 	andeq	r0, r0, r3, lsl #28
 20c:	03001603 	movweq	r1, #1539	; 0x603
 210:	3b0b3a0e 	blcc	2cea50 <Stack_Size+0x2cda50>
 214:	490b390b 	stmdbmi	fp, {r0, r1, r3, r8, fp, ip, sp}
 218:	04000013 	streq	r0, [r0], #-19	; 0xffffffed
 21c:	0b0b0024 	bleq	2c02b4 <Stack_Size+0x2bf2b4>
 220:	08030b3e 	stmdaeq	r3, {r1, r2, r3, r4, r5, r8, r9, fp}
 224:	35050000 	strcc	r0, [r5, #-0]
 228:	00134900 	andseq	r4, r3, r0, lsl #18
 22c:	00340600 	eorseq	r0, r4, r0, lsl #12
 230:	0b3a0e03 	bleq	e83a44 <Stack_Size+0xe82a44>
 234:	0b390b3b 	bleq	e42f28 <Stack_Size+0xe41f28>
 238:	193f1349 	ldmdbne	pc!, {r0, r3, r6, r8, r9, ip}	; <UNPREDICTABLE>
 23c:	00001802 	andeq	r1, r0, r2, lsl #16
 240:	0b000f07 	bleq	3e64 <Stack_Size+0x2e64>
 244:	0013490b 	andseq	r4, r3, fp, lsl #18
 248:	00260800 	eoreq	r0, r6, r0, lsl #16
 24c:	00001349 	andeq	r1, r0, r9, asr #6
 250:	3f012e09 	svccc	0x00012e09
 254:	3a0e0319 	bcc	380ec0 <Stack_Size+0x37fec0>
 258:	390b3b0b 	stmdbcc	fp, {r0, r1, r3, r8, r9, fp, ip, sp}
 25c:	1119270b 	tstne	r9, fp, lsl #14
 260:	40061201 	andmi	r1, r6, r1, lsl #4
 264:	19429718 	stmdbne	r2, {r3, r4, r8, r9, sl, ip, pc}^
 268:	00001301 	andeq	r1, r0, r1, lsl #6
 26c:	0300050a 	movweq	r0, #1290	; 0x50a
 270:	3b0b3a0e 	blcc	2ceab0 <Stack_Size+0x2cdab0>
 274:	490b390b 	stmdbmi	fp, {r0, r1, r3, r8, fp, ip, sp}
 278:	00180213 	andseq	r0, r8, r3, lsl r2
 27c:	002e0b00 	eoreq	r0, lr, r0, lsl #22
 280:	0e03193f 			; <UNDEFINED> instruction: 0x0e03193f
 284:	0b3b0b3a 	bleq	ec2f74 <Stack_Size+0xec1f74>
 288:	13490b39 	movtne	r0, #39737	; 0x9b39
 28c:	06120111 			; <UNDEFINED> instruction: 0x06120111
 290:	42971840 	addsmi	r1, r7, #64, 16	; 0x400000
 294:	0c000019 	stceq	0, cr0, [r0], {25}
 298:	193f012e 	ldmdbne	pc!, {r1, r2, r3, r5, r8}	; <UNPREDICTABLE>
 29c:	0b3a0e03 	bleq	e83ab0 <Stack_Size+0xe82ab0>
 2a0:	0b390b3b 	bleq	e42f94 <Stack_Size+0xe41f94>
 2a4:	01111927 	tsteq	r1, r7, lsr #18
 2a8:	18400612 	stmdane	r0, {r1, r4, r9, sl}^
 2ac:	00194297 	mulseq	r9, r7, r2
 2b0:	00050d00 	andeq	r0, r5, r0, lsl #26
 2b4:	0b3a0803 	bleq	e822c8 <Stack_Size+0xe812c8>
 2b8:	0b390b3b 	bleq	e42fac <Stack_Size+0xe41fac>
 2bc:	18021349 	stmdane	r2, {r0, r3, r6, r8, r9, ip}
 2c0:	01000000 	mrseq	r0, (UNDEF: 0)
 2c4:	0e250111 	mcreq	1, 1, r0, cr5, cr1, {0}
 2c8:	0e030b13 	vmoveq.32	d3[0], r0
 2cc:	01110e1b 	tsteq	r1, fp, lsl lr
 2d0:	17100612 			; <UNDEFINED> instruction: 0x17100612
 2d4:	34020000 	strcc	r0, [r2], #-0
 2d8:	3a0e0300 	bcc	380ee0 <Stack_Size+0x37fee0>
 2dc:	390b3b0b 	stmdbcc	fp, {r0, r1, r3, r8, r9, fp, ip, sp}
 2e0:	3f13490b 	svccc	0x0013490b
 2e4:	00180219 	andseq	r0, r8, r9, lsl r2
 2e8:	000f0300 	andeq	r0, pc, r0, lsl #6
 2ec:	13490b0b 	movtne	r0, #39691	; 0x9b0b
 2f0:	26040000 	strcs	r0, [r4], -r0
 2f4:	00134900 	andseq	r4, r3, r0, lsl #18
 2f8:	00240500 	eoreq	r0, r4, r0, lsl #10
 2fc:	0b3e0b0b 	bleq	f82f30 <Stack_Size+0xf81f30>
 300:	00000e03 	andeq	r0, r0, r3, lsl #28
 304:	49003506 	stmdbmi	r0, {r1, r2, r8, sl, ip, sp}
 308:	07000013 	smladeq	r0, r3, r0, r0
 30c:	193f012e 	ldmdbne	pc!, {r1, r2, r3, r5, r8}	; <UNPREDICTABLE>
 310:	0b3a0e03 	bleq	e83b24 <Stack_Size+0xe82b24>
 314:	0b390b3b 	bleq	e43008 <Stack_Size+0xe42008>
 318:	13491927 	movtne	r1, #39207	; 0x9927
 31c:	06120111 			; <UNDEFINED> instruction: 0x06120111
 320:	42971840 	addsmi	r1, r7, #64, 16	; 0x400000
 324:	00130119 	andseq	r0, r3, r9, lsl r1
 328:	00050800 	andeq	r0, r5, r0, lsl #16
 32c:	0b3a0e03 	bleq	e83b40 <Stack_Size+0xe82b40>
 330:	0b390b3b 	bleq	e43024 <Stack_Size+0xe42024>
 334:	17021349 	strne	r1, [r2, -r9, asr #6]
 338:	001742b7 			; <UNDEFINED> instruction: 0x001742b7
 33c:	00340900 	eorseq	r0, r4, r0, lsl #18
 340:	0b3a0803 	bleq	e82354 <Stack_Size+0xe81354>
 344:	0b390b3b 	bleq	e43038 <Stack_Size+0xe42038>
 348:	00001349 	andeq	r1, r0, r9, asr #6
 34c:	0b00240a 	bleq	937c <Stack_Size+0x837c>
 350:	030b3e0b 	movweq	r3, #48651	; 0xbe0b
 354:	0b000008 	bleq	37c <print>
 358:	08030034 	stmdaeq	r3, {r2, r4, r5}
 35c:	0b3b0b3a 	bleq	ec304c <Stack_Size+0xec204c>
 360:	13490b39 	movtne	r0, #39737	; 0x9b39
 364:	00000b1c 	andeq	r0, r0, ip, lsl fp
 368:	55010b0c 	strpl	r0, [r1, #-2828]	; 0xfffff4f4
 36c:	0d000017 	stceq	0, cr0, [r0, #-92]	; 0xffffffa4
 370:	08030034 	stmdaeq	r3, {r2, r4, r5}
 374:	0b3b0b3a 	bleq	ec3064 <Stack_Size+0xec2064>
 378:	13490b39 	movtne	r0, #39737	; 0x9b39
 37c:	42b71702 	adcsmi	r1, r7, #524288	; 0x80000
 380:	0e000017 	mcreq	0, 0, r0, cr0, cr7, {0}
 384:	193f012e 	ldmdbne	pc!, {r1, r2, r3, r5, r8}	; <UNPREDICTABLE>
 388:	0b3a0e03 	bleq	e83b9c <Stack_Size+0xe82b9c>
 38c:	0b390b3b 	bleq	e43080 <Stack_Size+0xe42080>
 390:	01111927 	tsteq	r1, r7, lsr #18
 394:	18400612 	stmdane	r0, {r1, r4, r9, sl}^
 398:	01194297 			; <UNDEFINED> instruction: 0x01194297
 39c:	0f000013 	svceq	0x00000013
 3a0:	08030005 	stmdaeq	r3, {r0, r2}
 3a4:	0b3b0b3a 	bleq	ec3094 <Stack_Size+0xec2094>
 3a8:	13490b39 	movtne	r0, #39737	; 0x9b39
 3ac:	42b71702 	adcsmi	r1, r7, #524288	; 0x80000
 3b0:	00000017 	andeq	r0, r0, r7, lsl r0
 3b4:	25011101 	strcs	r1, [r1, #-257]	; 0xfffffeff
 3b8:	030b130e 	movweq	r1, #45838	; 0xb30e
 3bc:	110e1b0e 	tstne	lr, lr, lsl #22
 3c0:	10061201 	andne	r1, r6, r1, lsl #4
 3c4:	02000017 	andeq	r0, r0, #23, 0
 3c8:	0b0b0024 	bleq	2c0460 <Stack_Size+0x2bf460>
 3cc:	0e030b3e 	vmoveq.16	d3[0], r0
 3d0:	16030000 	strne	r0, [r3], -r0
 3d4:	3a0e0300 	bcc	380fdc <Stack_Size+0x37ffdc>
 3d8:	390b3b0b 	stmdbcc	fp, {r0, r1, r3, r8, r9, fp, ip, sp}
 3dc:	0013490b 	andseq	r4, r3, fp, lsl #18
 3e0:	00240400 	eoreq	r0, r4, r0, lsl #8
 3e4:	0b3e0b0b 	bleq	f83018 <Stack_Size+0xf82018>
 3e8:	00000803 	andeq	r0, r0, r3, lsl #16
 3ec:	49003505 	stmdbmi	r0, {r0, r2, r8, sl, ip, sp}
 3f0:	06000013 			; <UNDEFINED> instruction: 0x06000013
 3f4:	0e030034 	mcreq	0, 0, r0, cr3, cr4, {1}
 3f8:	0b3b0b3a 	bleq	ec30e8 <Stack_Size+0xec20e8>
 3fc:	13490b39 	movtne	r0, #39737	; 0x9b39
 400:	1802193f 	stmdane	r2, {r0, r1, r2, r3, r4, r5, r8, fp, ip}
 404:	0f070000 	svceq	0x00070000
 408:	490b0b00 	stmdbmi	fp, {r8, r9, fp}
 40c:	08000013 	stmdaeq	r0, {r0, r1, r4}
 410:	13490026 	movtne	r0, #36902	; 0x9026
 414:	34090000 	strcc	r0, [r9], #-0
 418:	3a0e0300 	bcc	381020 <Stack_Size+0x380020>
 41c:	390b3b0b 	stmdbcc	fp, {r0, r1, r3, r8, r9, fp, ip, sp}
 420:	3f13490b 	svccc	0x0013490b
 424:	00193c19 	andseq	r3, r9, r9, lsl ip
 428:	012e0a00 			; <UNDEFINED> instruction: 0x012e0a00
 42c:	0e03193f 			; <UNDEFINED> instruction: 0x0e03193f
 430:	0b3b0b3a 	bleq	ec3120 <Stack_Size+0xec2120>
 434:	01110b39 	tsteq	r1, r9, lsr fp
 438:	18400612 	stmdane	r0, {r1, r4, r9, sl}^
 43c:	01194297 			; <UNDEFINED> instruction: 0x01194297
 440:	0b000013 	bleq	494 <print_dec+0xd8>
 444:	08030034 	stmdaeq	r3, {r2, r4, r5}
 448:	0b3b0b3a 	bleq	ec3138 <Stack_Size+0xec2138>
 44c:	13490b39 	movtne	r0, #39737	; 0x9b39
 450:	340c0000 	strcc	r0, [ip], #-0
 454:	3a080300 	bcc	20105c <Stack_Size+0x20005c>
 458:	390b3b0b 	stmdbcc	fp, {r0, r1, r3, r8, r9, fp, ip, sp}
 45c:	0213490b 	andseq	r4, r3, #180224	; 0x2c000
 460:	1742b717 	smlaldne	fp, r2, r7, r7
 464:	340d0000 	strcc	r0, [sp], #-0
 468:	3a0e0300 	bcc	381070 <Stack_Size+0x380070>
 46c:	390b3b0b 	stmdbcc	fp, {r0, r1, r3, r8, r9, fp, ip, sp}
 470:	0213490b 	andseq	r4, r3, #180224	; 0x2c000
 474:	0e000018 	mcreq	0, 0, r0, cr0, cr8, {0}
 478:	01018289 	smlabbeq	r1, r9, r2, r8
 47c:	13310111 	teqne	r1, #1073741828	; 0x40000004
 480:	00001301 	andeq	r1, r0, r1, lsl #6
 484:	01828a0f 	orreq	r8, r2, pc, lsl #20
 488:	91180200 	tstls	r8, r0, lsl #4
 48c:	00001842 	andeq	r1, r0, r2, asr #16
 490:	01828910 	orreq	r8, r2, r0, lsl r9
 494:	31011101 	tstcc	r1, r1, lsl #2
 498:	11000013 	tstne	r0, r3, lsl r0
 49c:	13490101 	movtne	r0, #37121	; 0x9101
 4a0:	00001301 	andeq	r1, r0, r1, lsl #6
 4a4:	49002112 	stmdbmi	r0, {r1, r4, r8, sp}
 4a8:	000b2f13 	andeq	r2, fp, r3, lsl pc
 4ac:	002e1300 	eoreq	r1, lr, r0, lsl #6
 4b0:	193c193f 	ldmdbne	ip!, {r0, r1, r2, r3, r4, r5, r8, fp, ip}
 4b4:	0e030e6e 	cdpeq	14, 0, cr0, cr3, cr14, {3}
 4b8:	0b3b0b3a 	bleq	ec31a8 <Stack_Size+0xec21a8>
 4bc:	00000b39 	andeq	r0, r0, r9, lsr fp
	...

Disassembly of section .debug_loc:

00000000 <.debug_loc>:
   0:	00000000 	andeq	r0, r0, r0
   4:	000002ee 	andeq	r0, r0, lr, ror #5
   8:	000002f4 	strdeq	r0, [r0], -r4
   c:	f8500001 			; <UNDEFINED> instruction: 0xf8500001
  10:	10000002 	andne	r0, r0, r2
  14:	01000003 	tsteq	r0, r3
  18:	00005000 	andeq	r5, r0, r0
  1c:	00000000 	andeq	r0, r0, r0
  20:	00010000 	andeq	r0, r1, r0
  24:	000002ee 	andeq	r0, r0, lr, ror #5
  28:	000002f2 	strdeq	r0, [r0], -r2
  2c:	00500001 	subseq	r0, r0, r1
  30:	00000000 	andeq	r0, r0, r0
  34:	01000000 	mrseq	r0, (UNDEF: 0)
  38:	00030000 	andeq	r0, r3, r0
  3c:	00030400 	andeq	r0, r3, r0, lsl #8
  40:	3a000200 	bcc	848 <i2c_read_byte+0x20>
  44:	0000009f 	muleq	r0, pc, r0	; <UNPREDICTABLE>
  48:	00000000 	andeq	r0, r0, r0
  4c:	00000200 	andeq	r0, r0, r0, lsl #4
  50:	0002d000 	andeq	sp, r2, r0
  54:	0002d600 	andeq	sp, r2, r0, lsl #12
  58:	09000300 	stmdbeq	r0, {r8, r9}
  5c:	02d69fff 	sbcseq	r9, r6, #1020	; 0x3fc
  60:	02dc0000 	sbcseq	r0, ip, #0, 0
  64:	00060000 	andeq	r0, r6, r0
  68:	ff080070 			; <UNDEFINED> instruction: 0xff080070
  6c:	00009f1a 	andeq	r9, r0, sl, lsl pc
	...
  78:	02480000 	subeq	r0, r8, #0, 0
  7c:	024c0000 	subeq	r0, ip, #0, 0
  80:	00010000 	andeq	r0, r1, r0
  84:	00024c50 	andeq	r4, r2, r0, asr ip
  88:	0002d000 	andeq	sp, r2, r0
  8c:	50000100 	andpl	r0, r0, r0, lsl #2
	...
  98:	02740001 	rsbseq	r0, r4, #1, 0
  9c:	027c0000 	rsbseq	r0, ip, #0, 0
  a0:	00030000 	andeq	r0, r3, r0
  a4:	009f3008 	addseq	r3, pc, r8
  a8:	00000000 	andeq	r0, r0, r0
  ac:	02000000 	andeq	r0, r0, #0, 0
  b0:	00027c00 	andeq	r7, r2, r0, lsl #24
  b4:	00028200 	andeq	r8, r2, r0, lsl #4
  b8:	08000300 	stmdaeq	r0, {r8, r9}
  bc:	00009f39 	andeq	r9, r0, r9, lsr pc
  c0:	00000000 	andeq	r0, r0, r0
  c4:	00010000 	andeq	r0, r1, r0
  c8:	00000284 	andeq	r0, r0, r4, lsl #5
  cc:	0000028c 	andeq	r0, r0, ip, lsl #5
  d0:	38080003 	stmdacc	r8, {r0, r1}
  d4:	0000009f 	muleq	r0, pc, r0	; <UNPREDICTABLE>
  d8:	00000000 	andeq	r0, r0, r0
  dc:	8c000200 	sfmhi	f0, 4, [r0], {-0}
  e0:	94000002 	strls	r0, [r0], #-2
  e4:	03000002 	movweq	r0, #2
  e8:	9f370800 	svcls	0x00370800
	...
  f4:	02940002 	addseq	r0, r4, #2, 0
  f8:	029c0000 	addseq	r0, ip, #0, 0
  fc:	00030000 	andeq	r0, r3, r0
 100:	009f3608 	addseq	r3, pc, r8, lsl #12
 104:	00000000 	andeq	r0, r0, r0
 108:	02000000 	andeq	r0, r0, #0, 0
 10c:	00029c00 	andeq	r9, r2, r0, lsl #24
 110:	0002a400 	andeq	sl, r2, r0, lsl #8
 114:	08000300 	stmdaeq	r0, {r8, r9}
 118:	00009f35 	andeq	r9, r0, r5, lsr pc
 11c:	00000000 	andeq	r0, r0, r0
 120:	00020000 	andeq	r0, r2, r0
 124:	000002a4 	andeq	r0, r0, r4, lsr #5
 128:	000002ac 	andeq	r0, r0, ip, lsr #5
 12c:	34080003 	strcc	r0, [r8], #-3
 130:	0000009f 	muleq	r0, pc, r0	; <UNPREDICTABLE>
 134:	00000000 	andeq	r0, r0, r0
 138:	ac000200 	sfmge	f0, 4, [r0], {-0}
 13c:	b4000002 	strlt	r0, [r0], #-2
 140:	03000002 	movweq	r0, #2
 144:	9f330800 	svcls	0x00330800
	...
 150:	02b40002 	adcseq	r0, r4, #2, 0
 154:	02bc0000 	adcseq	r0, ip, #0, 0
 158:	00030000 	andeq	r0, r3, r0
 15c:	009f3208 	addseq	r3, pc, r8, lsl #4
 160:	00000000 	andeq	r0, r0, r0
 164:	02000000 	andeq	r0, r0, #0, 0
 168:	0002bc00 	andeq	fp, r2, r0, lsl #24
 16c:	0002c400 	andeq	ip, r2, r0, lsl #8
 170:	08000300 	stmdaeq	r0, {r8, r9}
 174:	00009f31 	andeq	r9, r0, r1, lsr pc
	...
 194:	0000004c 	andeq	r0, r0, ip, asr #32
 198:	00000066 	andeq	r0, r0, r6, rrx
 19c:	66500001 	ldrbvs	r0, [r0], -r1
 1a0:	aa000000 	bge	1a8 <SVC_Handler>
 1a4:	01000000 	mrseq	r0, (UNDEF: 0)
 1a8:	00aa5000 	adceq	r5, sl, r0
 1ac:	00b00000 	adcseq	r0, r0, r0
 1b0:	00040000 	andeq	r0, r4, r0
 1b4:	9f5001f3 	svcls	0x005001f3
 1b8:	000000b0 	strheq	r0, [r0], -r0	; <UNPREDICTABLE>
 1bc:	00000124 	andeq	r0, r0, r4, lsr #2
 1c0:	24500001 	ldrbcs	r0, [r0], #-1
 1c4:	26000001 	strcs	r0, [r0], -r1
 1c8:	04000001 	streq	r0, [r0], #-1
 1cc:	01f57000 	mvnseq	r7, r0
 1d0:	0001269f 	muleq	r1, pc, r6	; <UNPREDICTABLE>
 1d4:	00013000 	andeq	r3, r1, r0
 1d8:	50000100 	andpl	r0, r0, r0, lsl #2
 1dc:	00000130 	andeq	r0, r0, r0, lsr r1
 1e0:	00000132 	andeq	r0, r0, r2, lsr r1
 1e4:	91700004 	cmnls	r0, r4
 1e8:	01329f01 	teqeq	r2, r1, lsl #30
 1ec:	013c0000 	teqeq	ip, r0
 1f0:	00010000 	andeq	r0, r1, r0
 1f4:	00013c50 	andeq	r3, r1, r0, asr ip
 1f8:	00013e00 	andeq	r3, r1, r0, lsl #28
 1fc:	70000300 	andvc	r0, r0, r0, lsl #6
 200:	013e9f2d 	teqeq	lr, sp, lsr #30
 204:	01d20000 	bicseq	r0, r2, r0
 208:	00010000 	andeq	r0, r1, r0
 20c:	0001d450 	andeq	sp, r1, r0, asr r4
 210:	00024800 	andeq	r4, r2, r0, lsl #16
 214:	50000100 	andpl	r0, r0, r0, lsl #2
	...
 220:	005a0001 	subseq	r0, sl, r1
 224:	00600000 	rsbeq	r0, r0, r0
 228:	00030000 	andeq	r0, r3, r0
 22c:	009f3108 	addseq	r3, pc, r8, lsl #2
 230:	00000000 	andeq	r0, r0, r0
 234:	01000000 	mrseq	r0, (UNDEF: 0)
 238:	00009e00 	andeq	r9, r0, r0, lsl #28
 23c:	0000a400 	andeq	sl, r0, r0, lsl #8
 240:	08000300 	stmdaeq	r0, {r8, r9}
 244:	00009f31 	andeq	r9, r0, r1, lsr pc
 248:	00000000 	andeq	r0, r0, r0
 24c:	00010000 	andeq	r0, r1, r0
 250:	000000b0 	strheq	r0, [r0], -r0	; <UNPREDICTABLE>
 254:	000000b8 	strheq	r0, [r0], -r8
 258:	20080003 	andcs	r0, r8, r3
 25c:	0000009f 	muleq	r0, pc, r0	; <UNPREDICTABLE>
 260:	00000000 	andeq	r0, r0, r0
 264:	b8000200 	stmdalt	r0, {r9}
 268:	be000000 	cdplt	0, 0, cr0, cr0, cr0, {0}
 26c:	03000000 	movweq	r0, #0
 270:	9f390800 	svcls	0x00390800
	...
 27c:	00e80001 	rsceq	r0, r8, r1
 280:	00ee0000 	rsceq	r0, lr, r0
 284:	00030000 	andeq	r0, r3, r0
 288:	009f3108 	addseq	r3, pc, r8, lsl #2
 28c:	00000000 	andeq	r0, r0, r0
 290:	01000000 	mrseq	r0, (UNDEF: 0)
 294:	0000f200 	andeq	pc, r0, r0, lsl #4
 298:	0000f800 	andeq	pc, r0, r0, lsl #16
 29c:	08000300 	stmdaeq	r0, {r8, r9}
 2a0:	00009f38 	andeq	r9, r0, r8, lsr pc
 2a4:	00000000 	andeq	r0, r0, r0
 2a8:	00010000 	andeq	r0, r1, r0
 2ac:	00000100 	andeq	r0, r0, r0, lsl #2
 2b0:	00000106 	andeq	r0, r0, r6, lsl #2
 2b4:	37080003 	strcc	r0, [r8, -r3]
 2b8:	0000009f 	muleq	r0, pc, r0	; <UNPREDICTABLE>
 2bc:	00000000 	andeq	r0, r0, r0
 2c0:	0e000100 	adfeqs	f0, f0, f0
 2c4:	14000001 	strne	r0, [r0], #-1
 2c8:	03000001 	movweq	r0, #1
 2cc:	9f360800 	svcls	0x00360800
	...
 2d8:	011c0001 	tsteq	ip, r1
 2dc:	01220000 			; <UNDEFINED> instruction: 0x01220000
 2e0:	00030000 	andeq	r0, r3, r0
 2e4:	009f3508 	addseq	r3, pc, r8, lsl #10
 2e8:	00000000 	andeq	r0, r0, r0
 2ec:	01000000 	mrseq	r0, (UNDEF: 0)
 2f0:	00012800 	andeq	r2, r1, r0, lsl #16
 2f4:	00012e00 	andeq	r2, r1, r0, lsl #28
 2f8:	08000300 	stmdaeq	r0, {r8, r9}
 2fc:	00009f34 	andeq	r9, r0, r4, lsr pc
 300:	00000000 	andeq	r0, r0, r0
 304:	00010000 	andeq	r0, r1, r0
 308:	00000134 	andeq	r0, r0, r4, lsr r1
 30c:	0000013a 	andeq	r0, r0, sl, lsr r1
 310:	33080003 	movwcc	r0, #32771	; 0x8003
 314:	0000009f 	muleq	r0, pc, r0	; <UNPREDICTABLE>
 318:	00000000 	andeq	r0, r0, r0
 31c:	40000100 	andmi	r0, r0, r0, lsl #2
 320:	46000001 	strmi	r0, [r0], -r1
 324:	03000001 	movweq	r0, #1
 328:	9f320800 	svcls	0x00320800
	...
 334:	014a0001 	cmpeq	sl, r1
 338:	01520000 	cmpeq	r2, r0
 33c:	00030000 	andeq	r0, r3, r0
 340:	009f3008 	addseq	r3, pc, r8
 344:	00000000 	andeq	r0, r0, r0
 348:	02000000 	andeq	r0, r0, #0, 0
 34c:	00015200 	andeq	r5, r1, r0, lsl #4
 350:	00015800 	andeq	r5, r1, r0, lsl #16
 354:	08000300 	stmdaeq	r0, {r8, r9}
 358:	00009f39 	andeq	r9, r0, r9, lsr pc
 35c:	00000000 	andeq	r0, r0, r0
 360:	00010000 	andeq	r0, r1, r0
 364:	00000176 	andeq	r0, r0, r6, ror r1
 368:	0000017e 	andeq	r0, r0, lr, ror r1
 36c:	31080003 	tstcc	r8, r3
 370:	0000009f 	muleq	r0, pc, r0	; <UNPREDICTABLE>
 374:	00000000 	andeq	r0, r0, r0
 378:	7e000200 	cdpvc	2, 0, cr0, cr0, cr0, {0}
 37c:	84000001 	strhi	r0, [r0], #-1
 380:	03000001 	movweq	r0, #1
 384:	9f380800 	svcls	0x00380800
	...
 390:	01880001 	orreq	r0, r8, r1
 394:	018e0000 	orreq	r0, lr, r0
 398:	00030000 	andeq	r0, r3, r0
 39c:	009f3708 	addseq	r3, pc, r8, lsl #14
 3a0:	00000000 	andeq	r0, r0, r0
 3a4:	01000000 	mrseq	r0, (UNDEF: 0)
 3a8:	00019200 	andeq	r9, r1, r0, lsl #4
 3ac:	00019800 	andeq	r9, r1, r0, lsl #16
 3b0:	08000300 	stmdaeq	r0, {r8, r9}
 3b4:	00009f36 	andeq	r9, r0, r6, lsr pc
 3b8:	00000000 	andeq	r0, r0, r0
 3bc:	00010000 	andeq	r0, r1, r0
 3c0:	0000019c 	muleq	r0, ip, r1
 3c4:	000001a2 	andeq	r0, r0, r2, lsr #3
 3c8:	35080003 	strcc	r0, [r8, #-3]
 3cc:	0000009f 	muleq	r0, pc, r0	; <UNPREDICTABLE>
 3d0:	00000000 	andeq	r0, r0, r0
 3d4:	a6000100 	strge	r0, [r0], -r0, lsl #2
 3d8:	ac000001 	stcge	0, cr0, [r0], {1}
 3dc:	03000001 	movweq	r0, #1
 3e0:	9f340800 	svcls	0x00340800
	...
 3ec:	01b00001 	movseq	r0, r1
 3f0:	01b60000 			; <UNDEFINED> instruction: 0x01b60000
 3f4:	00030000 	andeq	r0, r3, r0
 3f8:	009f3308 	addseq	r3, pc, r8, lsl #6
 3fc:	00000000 	andeq	r0, r0, r0
 400:	01000000 	mrseq	r0, (UNDEF: 0)
 404:	0001ba00 	andeq	fp, r1, r0, lsl #20
 408:	0001c000 	andeq	ip, r1, r0
 40c:	08000300 	stmdaeq	r0, {r8, r9}
 410:	00009f32 	andeq	r9, r0, r2, lsr pc
 414:	00000000 	andeq	r0, r0, r0
 418:	00010000 	andeq	r0, r1, r0
 41c:	000001c4 	andeq	r0, r0, r4, asr #3
 420:	000001cc 	andeq	r0, r0, ip, asr #3
 424:	30080003 	andcc	r0, r8, r3
 428:	0000009f 	muleq	r0, pc, r0	; <UNPREDICTABLE>
 42c:	00000000 	andeq	r0, r0, r0
 430:	cc000200 	sfmgt	f0, 4, [r0], {-0}
 434:	d2000001 	andle	r0, r0, #1, 0
 438:	03000001 	movweq	r0, #1
 43c:	9f390800 	svcls	0x00390800
	...
 448:	01d40001 	bicseq	r0, r4, r1
 44c:	01dc0000 	bicseq	r0, ip, r0
 450:	00030000 	andeq	r0, r3, r0
 454:	009f3808 	addseq	r3, pc, r8, lsl #16
 458:	00000000 	andeq	r0, r0, r0
 45c:	02000000 	andeq	r0, r0, #0, 0
 460:	0001dc00 	andeq	sp, r1, r0, lsl #24
 464:	0001e400 	andeq	lr, r1, r0, lsl #8
 468:	08000300 	stmdaeq	r0, {r8, r9}
 46c:	00009f37 	andeq	r9, r0, r7, lsr pc
 470:	00000000 	andeq	r0, r0, r0
 474:	00020000 	andeq	r0, r2, r0
 478:	000001e4 	andeq	r0, r0, r4, ror #3
 47c:	000001ec 	andeq	r0, r0, ip, ror #3
 480:	36080003 	strcc	r0, [r8], -r3
 484:	0000009f 	muleq	r0, pc, r0	; <UNPREDICTABLE>
 488:	00000000 	andeq	r0, r0, r0
 48c:	ec000200 	sfm	f0, 4, [r0], {-0}
 490:	f4000001 	vst4.8	{d0-d3}, [r0], r1
 494:	03000001 	movweq	r0, #1
 498:	9f350800 	svcls	0x00350800
	...
 4a4:	01f40002 	mvnseq	r0, r2
 4a8:	01fc0000 	mvnseq	r0, r0
 4ac:	00030000 	andeq	r0, r3, r0
 4b0:	009f3408 	addseq	r3, pc, r8, lsl #8
 4b4:	00000000 	andeq	r0, r0, r0
 4b8:	02000000 	andeq	r0, r0, #0, 0
 4bc:	0001fc00 	andeq	pc, r1, r0, lsl #24
 4c0:	00020400 	andeq	r0, r2, r0, lsl #8
 4c4:	08000300 	stmdaeq	r0, {r8, r9}
 4c8:	00009f33 	andeq	r9, r0, r3, lsr pc
 4cc:	00000000 	andeq	r0, r0, r0
 4d0:	00020000 	andeq	r0, r2, r0
 4d4:	00000204 	andeq	r0, r0, r4, lsl #4
 4d8:	0000020c 	andeq	r0, r0, ip, lsl #4
 4dc:	32080003 	andcc	r0, r8, #3, 0
 4e0:	0000009f 	muleq	r0, pc, r0	; <UNPREDICTABLE>
	...
 4ec:	24000000 	strcs	r0, [r0], #-0
 4f0:	2a000000 	bcs	4f8 <print_dec+0x13c>
 4f4:	01000000 	mrseq	r0, (UNDEF: 0)
 4f8:	002a5100 	eoreq	r5, sl, r0, lsl #2
 4fc:	002c0000 	eoreq	r0, ip, r0
 500:	00030000 	andeq	r0, r3, r0
 504:	2c9f0171 	ldfcss	f0, [pc], {113}	; 0x71
 508:	4c000000 	stcmi	0, cr0, [r0], {-0}
 50c:	04000000 	streq	r0, [r0], #-0
 510:	5101f300 	mrspl	pc, SP_irq	; <UNPREDICTABLE>
 514:	0000009f 	muleq	r0, pc, r0	; <UNPREDICTABLE>
 518:	00000000 	andeq	r0, r0, r0
 51c:	00000200 	andeq	r0, r0, r0, lsl #4
 520:	26000000 	strcs	r0, [r0], -r0
 524:	2a000000 	bcs	52c <print_dec+0x170>
 528:	03000000 	movweq	r0, #0
 52c:	9f7f7100 	svcls	0x007f7100
 530:	0000002a 	andeq	r0, r0, sl, lsr #32
 534:	0000002c 	andeq	r0, r0, ip, lsr #32
 538:	2c510001 	mrrccs	0, 0, r0, r1, cr1
 53c:	32000000 	andcc	r0, r0, #0, 0
 540:	06000000 	streq	r0, [r0], -r0
 544:	5101f300 	mrspl	pc, SP_irq	; <UNPREDICTABLE>
 548:	009f1c31 	addseq	r1, pc, r1, lsr ip	; <UNPREDICTABLE>
	...
 554:	00003a00 	andeq	r3, r0, r0, lsl #20
 558:	00004200 	andeq	r4, r0, r0, lsl #4
 55c:	53000100 	movwpl	r0, #256	; 0x100
	...
 568:	003a0001 	eorseq	r0, sl, r1
 56c:	003c0000 	eorseq	r0, ip, r0
 570:	00060000 	andeq	r0, r6, r0
 574:	ff080073 			; <UNDEFINED> instruction: 0xff080073
 578:	00009f1a 	andeq	r9, r0, sl, lsl pc
	...
 584:	000c0000 	andeq	r0, ip, r0
 588:	00160000 	andseq	r0, r6, r0
 58c:	00010000 	andeq	r0, r1, r0
 590:	00001650 	andeq	r1, r0, r0, asr r6
 594:	00002400 	andeq	r2, r0, r0, lsl #8
 598:	50000100 	andpl	r0, r0, r0, lsl #2
	...
 5a8:	00000016 	andeq	r0, r0, r6, lsl r0
 5ac:	0000001a 	andeq	r0, r0, sl, lsl r0
 5b0:	00730006 	rsbseq	r0, r3, r6
 5b4:	9f1aff08 	svcls	0x001aff08
 5b8:	0000001a 	andeq	r0, r0, sl, lsl r0
 5bc:	0000001e 	andeq	r0, r0, lr, lsl r0
 5c0:	00720008 	rsbseq	r0, r2, r8
 5c4:	ff080194 			; <UNDEFINED> instruction: 0xff080194
 5c8:	00009f1a 	andeq	r9, r0, sl, lsl pc
	...
 5d8:	00020000 	andeq	r0, r2, r0
 5dc:	00010000 	andeq	r0, r1, r0
 5e0:	00000250 	andeq	r0, r0, r0, asr r2
 5e4:	00000c00 	andeq	r0, r0, r0, lsl #24
 5e8:	f3000400 	vshl.u8	d0, d0, d0
 5ec:	009f5001 	addseq	r5, pc, r1
	...
 5f8:	8c000000 	stchi	0, cr0, [r0], {-0}
 5fc:	c2000001 	andgt	r0, r0, #1, 0
 600:	01000001 	tsteq	r0, r1
 604:	01c25000 	biceq	r5, r2, r0
 608:	02080000 	andeq	r0, r8, #0, 0
 60c:	00040000 	andeq	r0, r4, r0
 610:	9f5001f3 	svcls	0x005001f3
	...
 620:	0000018c 	andeq	r0, r0, ip, lsl #3
 624:	000001b2 			; <UNDEFINED> instruction: 0x000001b2
 628:	b2510001 	subslt	r0, r1, #1, 0
 62c:	08000001 	stmdaeq	r0, {r0}
 630:	04000002 	streq	r0, [r0], #-2
 634:	5101f300 	mrspl	pc, SP_irq	; <UNPREDICTABLE>
 638:	0000009f 	muleq	r0, pc, r0	; <UNPREDICTABLE>
	...
 644:	00006800 	andeq	r6, r0, r0, lsl #16
 648:	0000d000 	andeq	sp, r0, r0
 64c:	50000100 	andpl	r0, r0, r0, lsl #2
 650:	000000d0 	ldrdeq	r0, [r0], -r0	; <UNPREDICTABLE>
 654:	0000018c 	andeq	r0, r0, ip, lsl #3
 658:	01f30004 	mvnseq	r0, r4
 65c:	00009f50 	andeq	r9, r0, r0, asr pc
	...
 66c:	00680000 	rsbeq	r0, r8, r0
 670:	00a40000 	adceq	r0, r4, r0
 674:	00010000 	andeq	r0, r1, r0
 678:	0000a451 	andeq	sl, r0, r1, asr r4
 67c:	0000a600 	andeq	sl, r0, r0, lsl #12
 680:	74000200 	strvc	r0, [r0], #-512	; 0xfffffe00
 684:	0000a600 	andeq	sl, r0, r0, lsl #12
 688:	0000a800 	andeq	sl, r0, r0, lsl #16
 68c:	0c000500 	cfstr32eq	mvfx0, [r0], {-0}
 690:	4010000c 	andsmi	r0, r0, ip
 694:	000000a8 	andeq	r0, r0, r8, lsr #1
 698:	0000018c 	andeq	r0, r0, ip, lsl #3
 69c:	01f30004 	mvnseq	r0, r4
 6a0:	00009f51 	andeq	r9, r0, r1, asr pc
	...
 6ac:	00680000 	rsbeq	r0, r8, r0
 6b0:	01700000 	cmneq	r0, r0
 6b4:	00010000 	andeq	r0, r1, r0
 6b8:	00017052 	andeq	r7, r1, r2, asr r0
 6bc:	00018c00 	andeq	r8, r1, r0, lsl #24
 6c0:	f3000400 	vshl.u8	d0, d0, d0
 6c4:	009f5201 	addseq	r5, pc, r1, lsl #4
 6c8:	00000000 	andeq	r0, r0, r0
 6cc:	02000000 	andeq	r0, r0, #0, 0
	...
 6dc:	0000fe00 	andeq	pc, r0, r0, lsl #28
 6e0:	00011600 	andeq	r1, r1, r0, lsl #12
 6e4:	30000200 	andcc	r0, r0, r0, lsl #4
 6e8:	0001169f 	muleq	r1, pc, r6	; <UNPREDICTABLE>
 6ec:	00012000 	andeq	r2, r1, r0
 6f0:	56000100 	strpl	r0, [r0], -r0, lsl #2
 6f4:	00000134 	andeq	r0, r0, r4, lsr r1
 6f8:	00000136 	andeq	r0, r0, r6, lsr r1
 6fc:	01760003 	cmneq	r6, r3
 700:	0001369f 	muleq	r1, pc, r6	; <UNPREDICTABLE>
 704:	00013a00 	andeq	r3, r1, r0, lsl #20
 708:	53000100 	movwpl	r0, #256	; 0x100
 70c:	0000013c 	andeq	r0, r0, ip, lsr r1
 710:	00000156 	andeq	r0, r0, r6, asr r1
 714:	56560001 	ldrbpl	r0, [r6], -r1
 718:	58000001 	stmdapl	r0, {r0}
 71c:	03000001 	movweq	r0, #1
 720:	9f017600 	svcls	0x00017600
 724:	00000158 	andeq	r0, r0, r8, asr r1
 728:	0000016a 	andeq	r0, r0, sl, ror #2
 72c:	00560001 	subseq	r0, r6, r1
	...
 738:	20000000 	andcs	r0, r0, r0
 73c:	2c000000 	stccs	0, cr0, [r0], {-0}
 740:	01000000 	mrseq	r0, (UNDEF: 0)
 744:	002c5000 	eoreq	r5, ip, r0
 748:	00680000 	rsbeq	r0, r8, r0
 74c:	00040000 	andeq	r0, r4, r0
 750:	9f5001f3 	svcls	0x005001f3
	...
 760:	00000020 	andeq	r0, r0, r0, lsr #32
 764:	00000044 	andeq	r0, r0, r4, asr #32
 768:	44510001 	ldrbmi	r0, [r1], #-1
 76c:	68000000 	stmdavs	r0, {}	; <UNPREDICTABLE>
 770:	04000000 	streq	r0, [r0], #-0
 774:	5101f300 	mrspl	pc, SP_irq	; <UNPREDICTABLE>
 778:	0000009f 	muleq	r0, pc, r0	; <UNPREDICTABLE>
	...
 788:	00000200 	andeq	r0, r0, r0, lsl #4
 78c:	50000100 	andpl	r0, r0, r0, lsl #2
 790:	00000002 	andeq	r0, r0, r2
 794:	00000020 	andeq	r0, r0, r0, lsr #32
 798:	01f30004 	mvnseq	r0, r4
 79c:	00009f50 	andeq	r9, r0, r0, asr pc
 7a0:	00000000 	andeq	r0, r0, r0
 7a4:	00010000 	andeq	r0, r1, r0
 7a8:	00010100 	andeq	r0, r1, r0, lsl #2
 7ac:	00010000 	andeq	r0, r1, r0
 7b0:	00010100 	andeq	r0, r1, r0, lsl #2
 7b4:	00100000 	andseq	r0, r0, r0
 7b8:	00120000 	andseq	r0, r2, r0
 7bc:	00020000 	andeq	r0, r2, r0
 7c0:	00129f30 	andseq	r9, r2, r0, lsr pc
 7c4:	00120000 	andseq	r0, r2, r0
 7c8:	00090000 	andeq	r0, r9, r0
 7cc:	0111700c 	tsteq	r1, ip
 7d0:	1c007300 	stcne	3, cr7, [r0], {-0}
 7d4:	0000129f 	muleq	r0, pc, r2	; <UNPREDICTABLE>
 7d8:	00001400 	andeq	r1, r0, r0, lsl #8
 7dc:	0c000900 			; <UNDEFINED> instruction: 0x0c000900
 7e0:	00011171 	andeq	r1, r1, r1, ror r1
 7e4:	9f1c0073 	svcls	0x001c0073
 7e8:	00000014 	andeq	r0, r0, r4, lsl r0
 7ec:	0000001d 	andeq	r0, r0, sp, lsl r0
 7f0:	700c0009 	andvc	r0, ip, r9
 7f4:	73000111 	movwvc	r0, #273	; 0x111
 7f8:	2e9f1c00 	cdpcs	12, 9, cr1, cr15, cr0, {0}
 7fc:	30000000 	andcc	r0, r0, r0
 800:	02000000 	andeq	r0, r0, #0, 0
 804:	309f3000 	addscc	r3, pc, r0
 808:	30000000 	andcc	r0, r0, r0
 80c:	09000000 	stmdbeq	r0, {}	; <UNPREDICTABLE>
 810:	11700c00 	cmnne	r0, r0, lsl #24
 814:	00730001 	rsbseq	r0, r3, r1
 818:	00309f1c 	eorseq	r9, r0, ip, lsl pc
 81c:	00320000 	eorseq	r0, r2, r0
 820:	00090000 	andeq	r0, r9, r0
 824:	0111710c 	tsteq	r1, ip, lsl #2
 828:	1c007300 	stcne	3, cr7, [r0], {-0}
 82c:	0000329f 	muleq	r0, pc, r2	; <UNPREDICTABLE>
 830:	00003c00 	andeq	r3, r0, r0, lsl #24
 834:	0c000900 			; <UNDEFINED> instruction: 0x0c000900
 838:	00011170 	andeq	r1, r1, r0, ror r1
 83c:	9f1c0073 	svcls	0x001c0073
	...

Disassembly of section .debug_aranges:

00000000 <.debug_aranges>:
   0:	0000001c 	andeq	r0, r0, ip, lsl r0
   4:	00000002 	andeq	r0, r0, r2
   8:	00040000 	andeq	r0, r4, r0
   c:	00000000 	andeq	r0, r0, r0
  10:	00000370 	andeq	r0, r0, r0, ror r3
  14:	00000310 	andeq	r0, r0, r0, lsl r3
	...
  20:	0000001c 	andeq	r0, r0, ip, lsl r0
  24:	09be0002 	ldmibeq	lr!, {r1}
  28:	00040000 	andeq	r0, r4, r0
  2c:	00000000 	andeq	r0, r0, r0
  30:	00000680 	andeq	r0, r0, r0, lsl #13
  34:	0000001c 	andeq	r0, r0, ip, lsl r0
	...
  40:	0000001c 	andeq	r0, r0, ip, lsl r0
  44:	0ac60002 	beq	ff180054 <__StackLimit+0xdf17c054>
  48:	00040000 	andeq	r0, r4, r0
  4c:	00000000 	andeq	r0, r0, r0
  50:	0000069c 	muleq	r0, ip, r6
  54:	00000208 	andeq	r0, r0, r8, lsl #4
	...
  60:	0000001c 	andeq	r0, r0, ip, lsl r0
  64:	0ce50002 	stcleq	0, cr0, [r5], #8
  68:	00040000 	andeq	r0, r4, r0
  6c:	00000000 	andeq	r0, r0, r0
  70:	000008a4 	andeq	r0, r0, r4, lsr #17
  74:	0000003c 	andeq	r0, r0, ip, lsr r0
	...

Disassembly of section .debug_ranges:

00000000 <.debug_ranges>:
   0:	00000012 	andeq	r0, r0, r2, lsl r0
   4:	00000014 	andeq	r0, r0, r4, lsl r0
   8:	00000016 	andeq	r0, r0, r6, lsl r0
   c:	00000018 	andeq	r0, r0, r8, lsl r0
	...
  18:	00000030 	andeq	r0, r0, r0, lsr r0
  1c:	00000032 	andeq	r0, r0, r2, lsr r0
  20:	0000003a 	andeq	r0, r0, sl, lsr r0
  24:	0000003e 	andeq	r0, r0, lr, lsr r0
	...
  30:	000002e4 	andeq	r0, r0, r4, ror #5
  34:	000002e6 	andeq	r0, r0, r6, ror #5
  38:	000002ee 	andeq	r0, r0, lr, ror #5
  3c:	000002f2 	strdeq	r0, [r0], -r2
	...
  48:	000002ea 	andeq	r0, r0, sl, ror #5
  4c:	000002ec 	andeq	r0, r0, ip, ror #5
  50:	00000300 	andeq	r0, r0, r0, lsl #6
  54:	00000304 	andeq	r0, r0, r4, lsl #6
	...
  60:	000000fe 	strdeq	r0, [r0], -lr
  64:	000000fe 	strdeq	r0, [r0], -lr
  68:	00000100 	andeq	r0, r0, r0, lsl #2
  6c:	0000016a 	andeq	r0, r0, sl, ror #2
	...

Disassembly of section .debug_line:

00000000 <.debug_line>:
   0:	0000073d 	andeq	r0, r0, sp, lsr r7
   4:	00ae0003 	adceq	r0, lr, r3
   8:	01020000 	mrseq	r0, (UNDEF: 2)
   c:	000d0efb 	strdeq	r0, [sp], -fp
  10:	01010101 	tsteq	r1, r1, lsl #2
  14:	01000000 	mrseq	r0, (UNDEF: 0)
  18:	2e010000 	cdpcs	0, 0, cr0, cr1, cr0, {0}
  1c:	752f002e 	strvc	r0, [pc, #-46]!	; fffffff6 <__StackLimit+0xdfffbff6>
  20:	6c2f7273 	sfmvs	f7, 4, [pc], #-460	; fffffe5c <__StackLimit+0xdfffbe5c>
  24:	6c61636f 	stclvs	3, cr6, [r1], #-444	; 0xfffffe44
  28:	6363672f 	cmnvs	r3, #12320768	; 0xbc0000
  2c:	6d72615f 	ldfvse	f6, [r2, #-380]!	; 0xfffffe84
  30:	6363672f 	cmnvs	r3, #12320768	; 0xbc0000
  34:	6d72612d 	ldfvse	f6, [r2, #-180]!	; 0xffffff4c
  38:	6e6f6e2d 	cdpvs	14, 6, cr6, cr15, cr13, {1}
  3c:	61652d65 	cmnvs	r5, r5, ror #26
  40:	382d6962 	stmdacc	sp!, {r1, r5, r6, r8, fp, sp, lr}
  44:	3130322d 	teqcc	r0, sp, lsr #4
  48:	33712d39 	cmncc	r1, #3648	; 0xe40
  4c:	6470752d 	ldrbtvs	r7, [r0], #-1325	; 0xfffffad3
  50:	2f657461 	svccs	0x00657461
  54:	2f62696c 	svccs	0x0062696c
  58:	2f636367 	svccs	0x00636367
  5c:	2d6d7261 	sfmcs	f7, 2, [sp, #-388]!	; 0xfffffe7c
  60:	656e6f6e 	strbvs	r6, [lr, #-3950]!	; 0xfffff092
  64:	6261652d 	rsbvs	r6, r1, #188743680	; 0xb400000
  68:	2e382f69 	cdpcs	15, 3, cr2, cr8, cr9, {3}
  6c:	2f312e33 	svccs	0x00312e33
  70:	6c636e69 	stclvs	14, cr6, [r3], #-420	; 0xfffffe5c
  74:	00656475 	rsbeq	r6, r5, r5, ror r4
  78:	732f2e2e 			; <UNDEFINED> instruction: 0x732f2e2e
  7c:	72000077 	andvc	r0, r0, #119, 0	; 0x77
  80:	6f747061 	svcvs	0x00747061
  84:	6f695f72 	svcvs	0x00695f72
  88:	0100632e 	tsteq	r0, lr, lsr #6
  8c:	74730000 	ldrbtvc	r0, [r3], #-0
  90:	746e6964 	strbtvc	r6, [lr], #-2404	; 0xfffff69c
  94:	6363672d 	cmnvs	r3, #11796480	; 0xb40000
  98:	0200682e 	andeq	r6, r0, #3014656	; 0x2e0000
  9c:	6c630000 	stclvs	0, cr0, [r3], #-0
  a0:	7274636b 	rsbsvc	r6, r4, #-1409286143	; 0xac000001
  a4:	00682e6c 	rsbeq	r2, r8, ip, ror #28
  a8:	72000003 	andvc	r0, r0, #3, 0
  ac:	6f747061 	svcvs	0x00747061
  b0:	00682e72 	rsbeq	r2, r8, r2, ror lr
  b4:	00000001 	andeq	r0, r0, r1
  b8:	05000105 	streq	r0, [r0, #-261]	; 0xfffffefb
  bc:	00037002 	andeq	r7, r3, r2
  c0:	02051500 	andeq	r1, r5, #0, 10
  c4:	06110516 			; <UNDEFINED> instruction: 0x06110516
  c8:	01052001 	tsteq	r5, r1
  cc:	053f062f 	ldreq	r0, [pc, #-1583]!	; fffffaa5 <__StackLimit+0xdfffbaa5>
  d0:	09051302 	stmdbeq	r5, {r1, r8, r9, ip}
  d4:	08050106 	stmdaeq	r5, {r1, r2, r8}
  d8:	29110520 	ldmdbcs	r1, {r5, r8, sl}
  dc:	06030520 	streq	r0, [r3], -r0, lsr #10
  e0:	060e0518 			; <UNDEFINED> instruction: 0x060e0518
  e4:	06060501 	streq	r0, [r6], -r1, lsl #10
  e8:	05207503 	streq	r7, [r0, #-1283]!	; 0xfffffafd
  ec:	11051702 	tstne	r5, r2, lsl #14
  f0:	05200106 	streq	r0, [r0, #-262]!	; 0xfffffefa
  f4:	08051709 	stmdaeq	r5, {r0, r3, r8, r9, sl, ip}
  f8:	30010520 	andcc	r0, r1, r0, lsr #10
  fc:	01063f06 	tsteq	r6, r6, lsl #30
 100:	21060205 	tstcs	r6, r5, lsl #4
 104:	05010705 	streq	r0, [r1, #-1797]	; 0xfffff8fb
 108:	2e010602 	cfmadd32cs	mvax0, mvfx0, mvfx1, mvfx2
 10c:	05210805 	streq	r0, [r1, #-2053]!	; 0xfffff7fb
 110:	1105202c 	tstne	r5, ip, lsr #32
 114:	20207403 	eorcs	r7, r0, r3, lsl #8
 118:	02000305 	andeq	r0, r0, #335544320	; 0x14000000
 11c:	03060304 	movweq	r0, #25348	; 0x6304
 120:	2205010c 	andcs	r0, r5, #3
 124:	03040200 	movweq	r0, #16896	; 0x4200
 128:	2c050106 	stfcss	f0, [r5], {6}
 12c:	03040200 	movweq	r0, #16896	; 0x4200
 130:	0008052e 	andeq	r0, r8, lr, lsr #10
 134:	20030402 	andcs	r0, r3, r2, lsl #8
 138:	02000305 	andeq	r0, r0, #335544320	; 0x14000000
 13c:	21060304 	tstcs	r6, r4, lsl #6
 140:	02000605 	andeq	r0, r0, #5242880	; 0x500000
 144:	6e030304 	cdpvs	3, 0, cr0, cr3, cr4, {0}
 148:	00020501 	andeq	r0, r2, r1, lsl #10
 14c:	17030402 	strne	r0, [r3, -r2, lsl #8]
 150:	02001105 	andeq	r1, r0, #1073741825	; 0x40000001
 154:	01060304 	tsteq	r6, r4, lsl #6
 158:	03040200 	movweq	r0, #16896	; 0x4200
 15c:	00020520 	andeq	r0, r2, r0, lsr #10
 160:	03030402 	movweq	r0, #13314	; 0x3402
 164:	0200200b 	andeq	r2, r0, #11, 0
 168:	052e0304 	streq	r0, [lr, #-772]!	; 0xfffffcfc
 16c:	5b061601 	blpl	185978 <Stack_Size+0x184978>
 170:	02050106 	andeq	r0, r5, #-2147483647	; 0x80000001
 174:	05052106 	streq	r2, [r5, #-262]	; 0xfffffefa
 178:	07050106 	streq	r0, [r5, -r6, lsl #2]
 17c:	0a054006 	beq	15019c <Stack_Size+0x14f19c>
 180:	18050106 	stmdane	r5, {r1, r2, r8}
 184:	06053c06 	streq	r3, [r5], -r6, lsl #24
 188:	05016403 	streq	r6, [r1, #-1027]	; 0xfffffbfd
 18c:	11051702 	tstne	r5, r2, lsl #14
 190:	053c0106 	ldreq	r0, [ip, #-262]!	; 0xfffffefa
 194:	17030626 	strne	r0, [r3, -r6, lsr #12]
 198:	06280501 	strteq	r0, [r8], -r1, lsl #10
 19c:	06020501 	streq	r0, [r2], -r1, lsl #10
 1a0:	0606053f 			; <UNDEFINED> instruction: 0x0606053f
 1a4:	06070501 	streq	r0, [r7], -r1, lsl #10
 1a8:	060a053d 			; <UNDEFINED> instruction: 0x060a053d
 1ac:	06070501 	streq	r0, [r7], -r1, lsl #10
 1b0:	060a053d 			; <UNDEFINED> instruction: 0x060a053d
 1b4:	06070501 	streq	r0, [r7], -r1, lsl #10
 1b8:	060a053d 			; <UNDEFINED> instruction: 0x060a053d
 1bc:	06070501 	streq	r0, [r7], -r1, lsl #10
 1c0:	060a053d 			; <UNDEFINED> instruction: 0x060a053d
 1c4:	06070501 	streq	r0, [r7], -r1, lsl #10
 1c8:	060a054b 	streq	r0, [sl], -fp, asr #10
 1cc:	06070501 	streq	r0, [r7], -r1, lsl #10
 1d0:	060a054b 	streq	r0, [sl], -fp, asr #10
 1d4:	06070501 	streq	r0, [r7], -r1, lsl #10
 1d8:	060a054b 	streq	r0, [sl], -fp, asr #10
 1dc:	06070501 	streq	r0, [r7], -r1, lsl #10
 1e0:	060a052f 	streq	r0, [sl], -pc, lsr #10
 1e4:	06170501 	ldreq	r0, [r7], -r1, lsl #10
 1e8:	0306052e 	movweq	r0, #25902	; 0x652e
 1ec:	02050159 	andeq	r0, r5, #1073741846	; 0x40000016
 1f0:	06110517 			; <UNDEFINED> instruction: 0x06110517
 1f4:	25053c01 	strcs	r3, [r5, #-3073]	; 0xfffff3ff
 1f8:	01220306 			; <UNDEFINED> instruction: 0x01220306
 1fc:	01062705 	tsteq	r6, r5, lsl #14
 200:	06030520 	streq	r0, [r3], -r0, lsr #10
 204:	06207203 	strteq	r7, [r0], -r3, lsl #4
 208:	052f0620 	streq	r0, [pc, #-1568]!	; fffffbf0 <__StackLimit+0xdfffbbf0>
 20c:	06052307 	streq	r2, [r5], -r7, lsl #6
 210:	05016303 	streq	r6, [r1, #-771]	; 0xfffffcfd
 214:	11051702 	tstne	r5, r2, lsl #14
 218:	054a0106 	strbeq	r0, [sl, #-262]	; 0xfffffefa
 21c:	1a030613 	bne	c1a70 <Stack_Size+0xc0a70>
 220:	03060501 	movweq	r0, #25857	; 0x6501
 224:	02050161 	andeq	r0, r5, #1073741848	; 0x40000018
 228:	06110517 			; <UNDEFINED> instruction: 0x06110517
 22c:	21053c01 	tstcs	r5, r1, lsl #24
 230:	011a0306 	tsteq	sl, r6, lsl #6
 234:	01062305 	tsteq	r6, r5, lsl #6
 238:	03060205 	movweq	r0, #25093	; 0x6205
 23c:	06053c0b 	streq	r3, [r5], -fp, lsl #24
 240:	07050106 	streq	r0, [r5, -r6, lsl #2]
 244:	0a052f06 	beq	14be64 <Stack_Size+0x14ae64>
 248:	07050106 	streq	r0, [r5, -r6, lsl #2]
 24c:	0a052f06 	beq	14be6c <Stack_Size+0x14ae6c>
 250:	07050106 	streq	r0, [r5, -r6, lsl #2]
 254:	0a052f06 	beq	14be74 <Stack_Size+0x14ae74>
 258:	07050106 	streq	r0, [r5, -r6, lsl #2]
 25c:	0a052f06 	beq	14be7c <Stack_Size+0x14ae7c>
 260:	07050106 	streq	r0, [r5, -r6, lsl #2]
 264:	0a052f06 	beq	14be84 <Stack_Size+0x14ae84>
 268:	07050106 	streq	r0, [r5, -r6, lsl #2]
 26c:	0a052f06 	beq	14be8c <Stack_Size+0x14ae8c>
 270:	07050106 	streq	r0, [r5, -r6, lsl #2]
 274:	0a052f06 	beq	14be94 <Stack_Size+0x14ae94>
 278:	07050106 	streq	r0, [r5, -r6, lsl #2]
 27c:	0a052f06 	beq	14be9c <Stack_Size+0x14ae9c>
 280:	16050106 	strne	r0, [r5], -r6, lsl #2
 284:	06052e06 	streq	r2, [r5], -r6, lsl #28
 288:	05014e03 	streq	r4, [r1, #-3587]	; 0xfffff1fd
 28c:	11051702 	tstne	r5, r2, lsl #14
 290:	053c0106 	ldreq	r0, [ip, #-262]!	; 0xfffffefa
 294:	2d030624 	stccs	6, cr0, [r3, #-144]	; 0xffffff70
 298:	06260501 	strteq	r0, [r6], -r1, lsl #10
 29c:	17052001 	strne	r2, [r5, -r1]
 2a0:	206e0306 	rsbcs	r0, lr, r6, lsl #6
 2a4:	60030605 	andvs	r0, r3, r5, lsl #12
 2a8:	17020501 	strne	r0, [r2, -r1, lsl #10]
 2ac:	01061105 	tsteq	r6, r5, lsl #2
 2b0:	0625053c 			; <UNDEFINED> instruction: 0x0625053c
 2b4:	05011b03 	streq	r1, [r1, #-2819]	; 0xfffff4fd
 2b8:	3c010627 	stccc	6, cr0, [r1], {39}	; 0x27
 2bc:	21061705 	tstcs	r6, r5, lsl #14
 2c0:	5f030605 	svcpl	0x00030605
 2c4:	17020501 	strne	r0, [r2, -r1, lsl #10]
 2c8:	01061105 	tsteq	r6, r5, lsl #2
 2cc:	0625053c 			; <UNDEFINED> instruction: 0x0625053c
 2d0:	05011c03 	streq	r1, [r1, #-3075]	; 0xfffff3fd
 2d4:	3c010627 	stccc	6, cr0, [r1], {39}	; 0x27
 2d8:	21061705 	tstcs	r6, r5, lsl #14
 2dc:	5e030605 	cfmadd32pl	mvax0, mvfx0, mvfx3, mvfx5
 2e0:	17020501 	strne	r0, [r2, -r1, lsl #10]
 2e4:	01061105 	tsteq	r6, r5, lsl #2
 2e8:	0625053c 			; <UNDEFINED> instruction: 0x0625053c
 2ec:	05011d03 	streq	r1, [r1, #-3331]	; 0xfffff2fd
 2f0:	3c010627 	stccc	6, cr0, [r1], {39}	; 0x27
 2f4:	21061705 	tstcs	r6, r5, lsl #14
 2f8:	5d030605 	stcpl	6, cr0, [r3, #-20]	; 0xffffffec
 2fc:	17020501 	strne	r0, [r2, -r1, lsl #10]
 300:	01061105 	tsteq	r6, r5, lsl #2
 304:	0625053c 			; <UNDEFINED> instruction: 0x0625053c
 308:	05011e03 	streq	r1, [r1, #-3587]	; 0xfffff1fd
 30c:	20010627 	andcs	r0, r1, r7, lsr #12
 310:	06170520 	ldreq	r0, [r7], -r0, lsr #10
 314:	03060521 	movweq	r0, #25889	; 0x6521
 318:	0205015c 	andeq	r0, r5, #23
 31c:	06110517 			; <UNDEFINED> instruction: 0x06110517
 320:	25053c01 	strcs	r3, [r5, #-3073]	; 0xfffff3ff
 324:	011f0306 	tsteq	pc, r6, lsl #6
 328:	01062705 	tsteq	r6, r5, lsl #14
 32c:	17052020 	strne	r2, [r5, -r0, lsr #32]
 330:	06052106 	streq	r2, [r5], -r6, lsl #2
 334:	05015b03 	streq	r5, [r1, #-2819]	; 0xfffff4fd
 338:	11051702 	tstne	r5, r2, lsl #14
 33c:	053c0106 	ldreq	r0, [ip, #-262]!	; 0xfffffefa
 340:	20030625 	andcs	r0, r3, r5, lsr #12
 344:	06270501 	strteq	r0, [r7], -r1, lsl #10
 348:	05202001 	streq	r2, [r0, #-1]!
 34c:	05210617 	streq	r0, [r1, #-1559]!	; 0xfffff9e9
 350:	015a0306 	cmpeq	sl, r6, lsl #6
 354:	05170205 	ldreq	r0, [r7, #-517]	; 0xfffffdfb
 358:	3c010611 	stccc	6, cr0, [r1], {17}
 35c:	03062505 	movweq	r2, #25861	; 0x6505
 360:	27050121 	strcs	r0, [r5, -r1, lsr #2]
 364:	05200106 	streq	r0, [r0, #-262]!	; 0xfffffefa
 368:	05220607 	streq	r0, [r2, #-1543]!	; 0xfffff9f9
 36c:	01580306 	cmpeq	r8, r6, lsl #6
 370:	05170205 	ldreq	r0, [r7, #-517]	; 0xfffffdfb
 374:	4a010611 	bmi	41bc0 <Stack_Size+0x40bc0>
 378:	03061205 	movweq	r1, #25093	; 0x6205
 37c:	06050125 	streq	r0, [r5], -r5, lsr #2
 380:	05015603 	streq	r5, [r1, #-1539]	; 0xfffff9fd
 384:	11051702 	tstne	r5, r2, lsl #14
 388:	053c0106 	ldreq	r0, [ip, #-262]!	; 0xfffffefa
 38c:	25030620 	strcs	r0, [r3, #-1568]	; 0xfffff9e0
 390:	06220501 	strteq	r0, [r2], -r1, lsl #10
 394:	06020501 	streq	r0, [r2], -r1, lsl #10
 398:	05200b03 	streq	r0, [r0, #-2819]!	; 0xfffff4fd
 39c:	05010606 	streq	r0, [r1, #-1542]	; 0xfffff9fa
 3a0:	052f0607 	streq	r0, [pc, #-1543]!	; fffffda1 <__StackLimit+0xdfffbda1>
 3a4:	0501060a 	streq	r0, [r1, #-1546]	; 0xfffff9f6
 3a8:	05210607 	streq	r0, [r1, #-1543]!	; 0xfffff9f9
 3ac:	0501060a 	streq	r0, [r1, #-1546]	; 0xfffff9f6
 3b0:	052f0607 	streq	r0, [pc, #-1543]!	; fffffdb1 <__StackLimit+0xdfffbdb1>
 3b4:	0501060a 	streq	r0, [r1, #-1546]	; 0xfffff9f6
 3b8:	05210607 	streq	r0, [r1, #-1543]!	; 0xfffff9f9
 3bc:	0501060a 	streq	r0, [r1, #-1546]	; 0xfffff9f6
 3c0:	052f0607 	streq	r0, [pc, #-1543]!	; fffffdc1 <__StackLimit+0xdfffbdc1>
 3c4:	0501060a 	streq	r0, [r1, #-1546]	; 0xfffff9f6
 3c8:	05210607 	streq	r0, [r1, #-1543]!	; 0xfffff9f9
 3cc:	0501060a 	streq	r0, [r1, #-1546]	; 0xfffff9f6
 3d0:	052f0607 	streq	r0, [pc, #-1543]!	; fffffdd1 <__StackLimit+0xdfffbdd1>
 3d4:	0501060a 	streq	r0, [r1, #-1546]	; 0xfffff9f6
 3d8:	05210607 	streq	r0, [r1, #-1543]!	; 0xfffff9f9
 3dc:	0501060a 	streq	r0, [r1, #-1546]	; 0xfffff9f6
 3e0:	052e0615 	streq	r0, [lr, #-1557]!	; 0xfffff9eb
 3e4:	01430306 	cmpeq	r3, r6, lsl #6
 3e8:	05170205 	ldreq	r0, [r7, #-517]	; 0xfffffdfb
 3ec:	4a010611 	bmi	41c38 <Stack_Size+0x40c38>
 3f0:	03061605 	movweq	r1, #26117	; 0x6605
 3f4:	06050126 	streq	r0, [r5], -r6, lsr #2
 3f8:	05015503 	streq	r5, [r1, #-1283]	; 0xfffffafd
 3fc:	11051702 	tstne	r5, r2, lsl #14
 400:	053c0106 	ldreq	r0, [ip, #-262]!	; 0xfffffefa
 404:	26030624 	strcs	r0, [r3], -r4, lsr #12
 408:	06260501 	strteq	r0, [r6], -r1, lsl #10
 40c:	16052001 	strne	r2, [r5], -r1
 410:	06052106 	streq	r2, [r5], -r6, lsl #2
 414:	05015403 	streq	r5, [r1, #-1027]	; 0xfffffbfd
 418:	11051702 	tstne	r5, r2, lsl #14
 41c:	053c0106 	ldreq	r0, [ip, #-262]!	; 0xfffffefa
 420:	27030624 	strcs	r0, [r3, -r4, lsr #12]
 424:	06260501 	strteq	r0, [r6], -r1, lsl #10
 428:	16052001 	strne	r2, [r5], -r1
 42c:	06052106 	streq	r2, [r5], -r6, lsl #2
 430:	05015303 	streq	r5, [r1, #-771]	; 0xfffffcfd
 434:	11051702 	tstne	r5, r2, lsl #14
 438:	053c0106 	ldreq	r0, [ip, #-262]!	; 0xfffffefa
 43c:	28030624 	stmdacs	r3, {r2, r5, r9, sl}
 440:	06260501 	strteq	r0, [r6], -r1, lsl #10
 444:	16052001 	strne	r2, [r5], -r1
 448:	06052106 	streq	r2, [r5], -r6, lsl #2
 44c:	05015203 	streq	r5, [r1, #-515]	; 0xfffffdfd
 450:	11051702 	tstne	r5, r2, lsl #14
 454:	053c0106 	ldreq	r0, [ip, #-262]!	; 0xfffffefa
 458:	29030624 	stmdbcs	r3, {r2, r5, r9, sl}
 45c:	06260501 	strteq	r0, [r6], -r1, lsl #10
 460:	16052001 	strne	r2, [r5], -r1
 464:	06052106 	streq	r2, [r5], -r6, lsl #2
 468:	05015103 	streq	r5, [r1, #-259]	; 0xfffffefd
 46c:	11051702 	tstne	r5, r2, lsl #14
 470:	053c0106 	ldreq	r0, [ip, #-262]!	; 0xfffffefa
 474:	2a030624 	bcs	c1d0c <Stack_Size+0xc0d0c>
 478:	06260501 	strteq	r0, [r6], -r1, lsl #10
 47c:	16052001 	strne	r2, [r5], -r1
 480:	06052106 	streq	r2, [r5], -r6, lsl #2
 484:	05015003 	streq	r5, [r1, #-3]
 488:	11051702 	tstne	r5, r2, lsl #14
 48c:	053c0106 	ldreq	r0, [ip, #-262]!	; 0xfffffefa
 490:	2b030624 	blcs	c1d28 <Stack_Size+0xc0d28>
 494:	06260501 	strteq	r0, [r6], -r1, lsl #10
 498:	16052001 	strne	r2, [r5], -r1
 49c:	06052106 	streq	r2, [r5], -r6, lsl #2
 4a0:	05014f03 	streq	r4, [r1, #-3843]	; 0xfffff0fd
 4a4:	11051702 	tstne	r5, r2, lsl #14
 4a8:	053c0106 	ldreq	r0, [ip, #-262]!	; 0xfffffefa
 4ac:	2c030624 	stccs	6, cr0, [r3], {36}	; 0x24
 4b0:	06260501 	strteq	r0, [r6], -r1, lsl #10
 4b4:	07052001 	streq	r2, [r5, -r1]
 4b8:	06052206 	streq	r2, [r5], -r6, lsl #4
 4bc:	05014d03 	streq	r4, [r1, #-3331]	; 0xfffff2fd
 4c0:	11051702 	tstne	r5, r2, lsl #14
 4c4:	064a0106 	strbeq	r0, [sl], -r6, lsl #2
 4c8:	05013003 	streq	r3, [r1, #-3]
 4cc:	014b0306 	cmpeq	fp, r6, lsl #6
 4d0:	05170205 	ldreq	r0, [r7, #-517]	; 0xfffffdfb
 4d4:	3c010611 	stccc	6, cr0, [r1], {17}
 4d8:	3a030105 	bcc	c08f4 <Stack_Size+0xbf8f4>
 4dc:	06150501 	ldreq	r0, [r5], -r1, lsl #10
 4e0:	05207703 	streq	r7, [r0, #-1795]!	; 0xfffff8fd
 4e4:	014a0306 	cmpeq	sl, r6, lsl #6
 4e8:	05170205 	ldreq	r0, [r7, #-517]	; 0xfffffdfb
 4ec:	4a010611 	bmi	41d38 <Stack_Size+0x40d38>
 4f0:	03061505 	movweq	r1, #25861	; 0x6505
 4f4:	06050132 			; <UNDEFINED> instruction: 0x06050132
 4f8:	05014903 	streq	r4, [r1, #-2307]	; 0xfffff6fd
 4fc:	11051702 	tstne	r5, r2, lsl #14
 500:	054a0106 	strbeq	r0, [sl, #-262]	; 0xfffffefa
 504:	33030615 	movwcc	r0, #13845	; 0x3615
 508:	03060501 	movweq	r0, #25857	; 0x6501
 50c:	02050148 	andeq	r0, r5, #18
 510:	06110517 			; <UNDEFINED> instruction: 0x06110517
 514:	15054a01 	strne	r4, [r5, #-2561]	; 0xfffff5ff
 518:	01340306 	teqeq	r4, r6, lsl #6
 51c:	47030605 	strmi	r0, [r3, -r5, lsl #12]
 520:	17020501 	strne	r0, [r2, -r1, lsl #10]
 524:	01061105 	tsteq	r6, r5, lsl #2
 528:	0615054a 	ldreq	r0, [r5], -sl, asr #10
 52c:	05013503 	streq	r3, [r1, #-1283]	; 0xfffffafd
 530:	01460306 	cmpeq	r6, r6, lsl #6
 534:	05170205 	ldreq	r0, [r7, #-517]	; 0xfffffdfb
 538:	4a010611 	bmi	41d84 <Stack_Size+0x40d84>
 53c:	03061505 	movweq	r1, #25861	; 0x6505
 540:	06050136 			; <UNDEFINED> instruction: 0x06050136
 544:	05014503 	streq	r4, [r1, #-1283]	; 0xfffffafd
 548:	11051702 	tstne	r5, r2, lsl #14
 54c:	054a0106 	strbeq	r0, [sl, #-262]	; 0xfffffefa
 550:	37030615 	smladcc	r3, r5, r6, r0
 554:	03060501 	movweq	r0, #25857	; 0x6501
 558:	02050144 	andeq	r0, r5, #17
 55c:	06110517 			; <UNDEFINED> instruction: 0x06110517
 560:	07054a01 	streq	r4, [r5, -r1, lsl #20]
 564:	01390306 	teqeq	r9, r6, lsl #6
 568:	42030605 	andmi	r0, r3, #5242880	; 0x500000
 56c:	17020501 	strne	r0, [r2, -r1, lsl #10]
 570:	01061105 	tsteq	r6, r5, lsl #2
 574:	03060105 	movweq	r0, #24837	; 0x6105
 578:	05c8083d 	strbeq	r0, [r8, #2109]	; 0x83d
 57c:	07051305 	streq	r1, [r5, -r5, lsl #6]
 580:	05050106 	streq	r0, [r5, #-262]	; 0xfffffefa
 584:	08053006 	stmdaeq	r5, {r1, r2, ip, sp}
 588:	0a050106 	beq	1409a8 <Stack_Size+0x13f9a8>
 58c:	0d052f06 	stceq	15, cr2, [r5, #-24]	; 0xffffffe8
 590:	0a050106 	beq	1409b0 <Stack_Size+0x13f9b0>
 594:	0d052f06 	stceq	15, cr2, [r5, #-24]	; 0xffffffe8
 598:	0a050106 	beq	1409b8 <Stack_Size+0x13f9b8>
 59c:	0d052f06 	stceq	15, cr2, [r5, #-24]	; 0xffffffe8
 5a0:	0a050106 	beq	1409c0 <Stack_Size+0x13f9c0>
 5a4:	0d052f06 	stceq	15, cr2, [r5, #-24]	; 0xffffffe8
 5a8:	0a050106 	beq	1409c8 <Stack_Size+0x13f9c8>
 5ac:	0d052f06 	stceq	15, cr2, [r5, #-24]	; 0xffffffe8
 5b0:	0a050106 	beq	1409d0 <Stack_Size+0x13f9d0>
 5b4:	0d052f06 	stceq	15, cr2, [r5, #-24]	; 0xffffffe8
 5b8:	0a050106 	beq	1409d8 <Stack_Size+0x13f9d8>
 5bc:	0d052f06 	stceq	15, cr2, [r5, #-24]	; 0xffffffe8
 5c0:	0a050106 	beq	1409e0 <Stack_Size+0x13f9e0>
 5c4:	0d052f06 	stceq	15, cr2, [r5, #-24]	; 0xffffffe8
 5c8:	0a050106 	beq	1409e8 <Stack_Size+0x13f9e8>
 5cc:	0d052f06 	stceq	15, cr2, [r5, #-24]	; 0xffffffe8
 5d0:	18050106 	stmdane	r5, {r1, r2, r8}
 5d4:	06052e06 	streq	r2, [r5], -r6, lsl #28
 5d8:	017fb203 	cmneq	pc, r3, lsl #4
 5dc:	05170205 	ldreq	r0, [r7, #-517]	; 0xfffffdfb
 5e0:	4a010611 	bmi	41e2c <Stack_Size+0x40e2c>
 5e4:	03061305 	movweq	r1, #25349	; 0x6305
 5e8:	050100c0 	streq	r0, [r1, #-192]	; 0xffffff40
 5ec:	7fbb0306 	svcvc	0x00bb0306
 5f0:	17020501 	strne	r0, [r2, -r1, lsl #10]
 5f4:	01061105 	tsteq	r6, r5, lsl #2
 5f8:	0301053c 	movweq	r0, #5436	; 0x153c
 5fc:	050100cb 	streq	r0, [r1, #-203]	; 0xffffff35
 600:	76030618 			; <UNDEFINED> instruction: 0x76030618
 604:	03060520 	movweq	r0, #25888	; 0x6520
 608:	05017fba 	streq	r7, [r1, #-4026]	; 0xfffff046
 60c:	11051702 	tstne	r5, r2, lsl #14
 610:	054a0106 	strbeq	r0, [sl, #-262]	; 0xfffffefa
 614:	c2030618 	andgt	r0, r3, #24, 12	; 0x1800000
 618:	06050100 	streq	r0, [r5], -r0, lsl #2
 61c:	017fb903 	cmneq	pc, r3, lsl #18
 620:	05170205 	ldreq	r0, [r7, #-517]	; 0xfffffdfb
 624:	4a010611 	bmi	41e70 <Stack_Size+0x40e70>
 628:	03061805 	movweq	r1, #26629	; 0x6805
 62c:	050100c3 	streq	r0, [r1, #-195]	; 0xffffff3d
 630:	7fb80306 	svcvc	0x00b80306
 634:	17020501 	strne	r0, [r2, -r1, lsl #10]
 638:	01061105 	tsteq	r6, r5, lsl #2
 63c:	0618054a 	ldreq	r0, [r8], -sl, asr #10
 640:	0100c403 	tsteq	r0, r3, lsl #8
 644:	b7030605 	strlt	r0, [r3, -r5, lsl #12]
 648:	0205017f 	andeq	r0, r5, #-1073741793	; 0xc000001f
 64c:	06110517 			; <UNDEFINED> instruction: 0x06110517
 650:	18054a01 	stmdane	r5, {r0, r9, fp, lr}
 654:	00c50306 	sbceq	r0, r5, r6, lsl #6
 658:	03060501 	movweq	r0, #25857	; 0x6501
 65c:	05017fb6 	streq	r7, [r1, #-4022]	; 0xfffff04a
 660:	11051702 	tstne	r5, r2, lsl #14
 664:	054a0106 	strbeq	r0, [sl, #-262]	; 0xfffffefa
 668:	c6030618 			; <UNDEFINED> instruction: 0xc6030618
 66c:	06050100 	streq	r0, [r5], -r0, lsl #2
 670:	017fb503 	cmneq	pc, r3, lsl #10
 674:	05170205 	ldreq	r0, [r7, #-517]	; 0xfffffdfb
 678:	4a010611 	bmi	41ec4 <Stack_Size+0x40ec4>
 67c:	03061805 	movweq	r1, #26629	; 0x6805
 680:	050100c7 	streq	r0, [r1, #-199]	; 0xffffff39
 684:	7fb40306 	svcvc	0x00b40306
 688:	17020501 	strne	r0, [r2, -r1, lsl #10]
 68c:	01061105 	tsteq	r6, r5, lsl #2
 690:	0618054a 	ldreq	r0, [r8], -sl, asr #10
 694:	0100c803 	tsteq	r0, r3, lsl #16
 698:	b3030605 	movwlt	r0, #13829	; 0x3605
 69c:	0205017f 	andeq	r0, r5, #-1073741793	; 0xc000001f
 6a0:	06110517 			; <UNDEFINED> instruction: 0x06110517
 6a4:	0a054a01 	beq	152eb0 <Stack_Size+0x151eb0>
 6a8:	00ca0306 	sbceq	r0, sl, r6, lsl #6
 6ac:	03060501 	movweq	r0, #25857	; 0x6501
 6b0:	05017fb1 	streq	r7, [r1, #-4017]	; 0xfffff04f
 6b4:	11051702 	tstne	r5, r2, lsl #14
 6b8:	01050106 	tsteq	r5, r6, lsl #2
 6bc:	3c00cb03 			; <UNDEFINED> instruction: 0x3c00cb03
 6c0:	3c1f0306 	ldccc	3, cr0, [pc], {6}
 6c4:	13130205 	tstne	r3, #1342177280	; 0x50000000
 6c8:	05130305 	ldreq	r0, [r3, #-773]	; 0xfffffcfb
 6cc:	05010607 	streq	r0, [r1, #-1543]	; 0xfffff9f9
 6d0:	053e0602 	ldreq	r0, [lr, #-1538]!	; 0xfffff9fe
 6d4:	06130601 	ldreq	r0, [r3], -r1, lsl #12
 6d8:	2102053f 	tstcs	r2, pc, lsr r5
 6dc:	1105133d 	tstne	r5, sp, lsr r3
 6e0:	7f8a0306 	svcvc	0x008a0306
 6e4:	03150501 	tsteq	r5, #4194304	; 0x400000
 6e8:	052000fc 	streq	r0, [r0, #-252]!	; 0xffffff04
 6ec:	7f840311 	svcvc	0x00840311
 6f0:	0308052e 	movweq	r0, #34094	; 0x852e
 6f4:	052000f6 	streq	r0, [r0, #-246]!	; 0xffffff0a
 6f8:	05240607 	streq	r0, [r4, #-1543]!	; 0xfffff9f9
 6fc:	7f810306 	svcvc	0x00810306
 700:	17020501 	strne	r0, [r2, -r1, lsl #10]
 704:	01061105 	tsteq	r6, r5, lsl #2
 708:	0607052e 	streq	r0, [r7], -lr, lsr #10
 70c:	0100fc03 	tsteq	r0, r3, lsl #24	; <UNPREDICTABLE>
 710:	01061505 	tsteq	r6, r5, lsl #10
 714:	7a030e05 	bvc	c3f30 <Stack_Size+0xc2f30>
 718:	2e080520 	cfsh32cs	mvfx0, mvfx8, #16
 71c:	2f060305 	svccs	0x00060305
 720:	01060605 	tsteq	r6, r5, lsl #12
 724:	2f060705 	svccs	0x00060705
 728:	83030605 	movwhi	r0, #13829	; 0x3605
 72c:	0205017f 	andeq	r0, r5, #-1073741793	; 0xc000001f
 730:	06110517 			; <UNDEFINED> instruction: 0x06110517
 734:	01052e01 	tsteq	r5, r1, lsl #28
 738:	0100ff03 	tsteq	r0, r3, lsl #30	; <UNPREDICTABLE>
 73c:	01000602 	tsteq	r0, r2, lsl #12
 740:	0000cc01 	andeq	ip, r0, r1, lsl #24
 744:	91000300 	mrsls	r0, LR_irq
 748:	02000000 	andeq	r0, r0, #0, 0
 74c:	0d0efb01 	vstreq	d15, [lr, #-4]
 750:	01010100 	mrseq	r0, (UNDEF: 17)
 754:	00000001 	andeq	r0, r0, r1
 758:	01000001 	tsteq	r0, r1
 75c:	732f2e2e 			; <UNDEFINED> instruction: 0x732f2e2e
 760:	752f0077 	strvc	r0, [pc, #-119]!	; 6f1 <i2c_send_byte+0x35>
 764:	6c2f7273 	sfmvs	f7, 4, [pc], #-460	; 5a0 <print_dec+0x1e4>
 768:	6c61636f 	stclvs	3, cr6, [r1], #-444	; 0xfffffe44
 76c:	6363672f 	cmnvs	r3, #12320768	; 0xbc0000
 770:	6d72615f 	ldfvse	f6, [r2, #-380]!	; 0xfffffe84
 774:	6363672f 	cmnvs	r3, #12320768	; 0xbc0000
 778:	6d72612d 	ldfvse	f6, [r2, #-180]!	; 0xffffff4c
 77c:	6e6f6e2d 	cdpvs	14, 6, cr6, cr15, cr13, {1}
 780:	61652d65 	cmnvs	r5, r5, ror #26
 784:	382d6962 	stmdacc	sp!, {r1, r5, r6, r8, fp, sp, lr}
 788:	3130322d 	teqcc	r0, sp, lsr #4
 78c:	33712d39 	cmncc	r1, #3648	; 0xe40
 790:	6470752d 	ldrbtvs	r7, [r0], #-1325	; 0xfffffad3
 794:	2f657461 	svccs	0x00657461
 798:	2f62696c 	svccs	0x0062696c
 79c:	2f636367 	svccs	0x00636367
 7a0:	2d6d7261 	sfmcs	f7, 2, [sp, #-388]!	; 0xfffffe7c
 7a4:	656e6f6e 	strbvs	r6, [lr, #-3950]!	; 0xfffff092
 7a8:	6261652d 	rsbvs	r6, r1, #188743680	; 0xb400000
 7ac:	2e382f69 	cdpcs	15, 3, cr2, cr8, cr9, {3}
 7b0:	2f312e33 	svccs	0x00312e33
 7b4:	6c636e69 	stclvs	14, cr6, [r3], #-420	; 0xfffffe5c
 7b8:	00656475 	rsbeq	r6, r5, r5, ror r4
 7bc:	69706700 	ldmdbvs	r0!, {r8, r9, sl, sp, lr}^
 7c0:	72645f6f 	rsbvc	r5, r4, #444	; 0x1bc
 7c4:	00632e76 	rsbeq	r2, r3, r6, ror lr
 7c8:	73000001 	movwvc	r0, #1
 7cc:	6e696474 	mcrvs	4, 3, r6, cr9, cr4, {3}
 7d0:	63672d74 	cmnvs	r7, #116, 26	; 0x1d00
 7d4:	00682e63 	rsbeq	r2, r8, r3, ror #28
 7d8:	00000002 	andeq	r0, r0, r2
 7dc:	05002405 	streq	r2, [r0, #-1029]	; 0xfffffbfb
 7e0:	00068002 	andeq	r8, r6, r2
 7e4:	05051a00 	streq	r1, [r5, #-2560]	; 0xfffff600
 7e8:	06120514 			; <UNDEFINED> instruction: 0x06120514
 7ec:	2f010501 	svccs	0x00010501
 7f0:	4c061905 			; <UNDEFINED> instruction: 0x4c061905
 7f4:	05140505 	ldreq	r0, [r4, #-1285]	; 0xfffffafb
 7f8:	0501060c 	streq	r0, [r1, #-1548]	; 0xfffff9f4
 7fc:	23053d01 	movwcs	r3, #23809	; 0x5d01
 800:	05052206 	streq	r2, [r5, #-518]	; 0xfffffdfa
 804:	06130514 			; <UNDEFINED> instruction: 0x06130514
 808:	3d010501 	cfstr32cc	mvfx0, [r1, #-4]
 80c:	01000102 	tsteq	r0, r2, lsl #2
 810:	00038701 	andeq	r8, r3, r1, lsl #14
 814:	34000300 	strcc	r0, [r0], #-768	; 0xfffffd00
 818:	02000000 	andeq	r0, r0, #0, 0
 81c:	0d0efb01 	vstreq	d15, [lr, #-4]
 820:	01010100 	mrseq	r0, (UNDEF: 17)
 824:	00000001 	andeq	r0, r0, r1
 828:	01000001 	tsteq	r0, r1
 82c:	732f2e2e 			; <UNDEFINED> instruction: 0x732f2e2e
 830:	69000077 	stmdbvs	r0, {r0, r1, r2, r4, r5, r6}
 834:	645f6332 	ldrbvs	r6, [pc], #-818	; 83c <i2c_read_byte+0x14>
 838:	632e7672 			; <UNDEFINED> instruction: 0x632e7672
 83c:	00000100 	andeq	r0, r0, r0, lsl #2
 840:	5f633269 	svcpl	0x00633269
 844:	73676572 	cmnvc	r7, #478150656	; 0x1c800000
 848:	0100682e 	tsteq	r0, lr, lsr #16
 84c:	05000000 	streq	r0, [r0, #-0]
 850:	02050020 	andeq	r0, r5, #32, 0
 854:	0000069c 	muleq	r0, ip, r6
 858:	05010b03 	streq	r0, [r1, #-2819]	; 0xfffff4fd
 85c:	13051505 	movwne	r1, #21765	; 0x5505
 860:	05200106 	streq	r0, [r0, #-262]!	; 0xfffffefa
 864:	052f0605 	streq	r0, [pc, #-1541]!	; 267 <SPI_ALL_Handler+0xb>
 868:	05010613 	streq	r0, [r1, #-1555]	; 0xfffff9ed
 86c:	053e0605 	ldreq	r0, [lr, #-1541]!	; 0xfffff9fb
 870:	05010611 	streq	r0, [r1, #-1553]	; 0xfffff9ef
 874:	3c053d01 	stccc	13, cr3, [r5], {1}
 878:	05057606 	streq	r7, [r5, #-1542]	; 0xfffff9fa
 87c:	0f051313 	svceq	0x00051313
 880:	05050106 	streq	r0, [r5, #-262]	; 0xfffffefa
 884:	10052f06 	andne	r2, r5, r6, lsl #30
 888:	05050106 	streq	r0, [r5, #-262]	; 0xfffffefa
 88c:	0e053d06 	cdpeq	13, 0, cr3, cr5, cr6, {0}
 890:	0a050106 	beq	140cb0 <Stack_Size+0x13fcb0>
 894:	002f0520 	eoreq	r0, pc, r0, lsr #10
 898:	06010402 	streq	r0, [r1], -r2, lsl #8
 89c:	000e0520 	andeq	r0, lr, r0, lsr #10
 8a0:	06010402 	streq	r0, [r1], -r2, lsl #8
 8a4:	000a0501 	andeq	r0, sl, r1, lsl #10
 8a8:	20010402 	andcs	r0, r1, r2, lsl #8
 8ac:	31060505 	tstcc	r6, r5, lsl #10
 8b0:	01060b05 	tsteq	r6, r5, lsl #22
 8b4:	32060505 	andcc	r0, r6, #20971520	; 0x1400000
 8b8:	01060f05 	tsteq	r6, r5, lsl #30
 8bc:	2f060505 	svccs	0x00060505
 8c0:	01061005 	tsteq	r6, r5
 8c4:	3d060505 	cfstr32cc	mvfx0, [r6, #-20]	; 0xffffffec
 8c8:	01060d05 	tsteq	r6, r5, lsl #26
 8cc:	05200a05 	streq	r0, [r0, #-2565]!	; 0xfffff5fb
 8d0:	04020028 	streq	r0, [r2], #-40	; 0xffffffd8
 8d4:	05200601 	streq	r0, [r0, #-1537]!	; 0xfffff9ff
 8d8:	0402000d 	streq	r0, [r2], #-13
 8dc:	05010601 	streq	r0, [r1, #-1537]	; 0xfffff9ff
 8e0:	0402000a 	streq	r0, [r2], #-10
 8e4:	05052001 	streq	r2, [r5, #-1]
 8e8:	10052f06 	andne	r2, r5, r6, lsl #30
 8ec:	05050106 	streq	r0, [r5, #-262]	; 0xfffffefa
 8f0:	0b053d06 	bleq	14fd10 <Stack_Size+0x14ed10>
 8f4:	09050106 	stmdbeq	r5, {r1, r2, r8}
 8f8:	01053106 	tsteq	r5, r6, lsl #2
 8fc:	5a051306 	bpl	14551c <Stack_Size+0x14451c>
 900:	01069306 	tsteq	r6, r6, lsl #6
 904:	3d060505 	cfstr32cc	mvfx0, [r6, #-20]	; 0xffffffec
 908:	0f051515 	svceq	0x00051515
 90c:	05050106 	streq	r0, [r5, #-262]	; 0xfffffefa
 910:	10052f06 	andne	r2, r5, r6, lsl #30
 914:	05050106 	streq	r0, [r5, #-262]	; 0xfffffefa
 918:	0e053d06 	cdpeq	13, 0, cr3, cr5, cr6, {0}
 91c:	0a050106 	beq	140d3c <Stack_Size+0x13fd3c>
 920:	2f17052e 	svccs	0x0017052e
 924:	053b0e05 	ldreq	r0, [fp, #-3589]!	; 0xfffff1fb
 928:	0905200a 	stmdbeq	r5, {r1, r3, sp}
 92c:	17052106 	strne	r2, [r5, -r6, lsl #2]
 930:	0e050106 	adfeqs	f0, f5, f6
 934:	200a051f 	andcs	r0, sl, pc, lsl r5
 938:	31060605 	tstcc	r6, r5, lsl #12
 93c:	05130505 	ldreq	r0, [r3, #-1285]	; 0xfffffafb
 940:	05010613 	streq	r0, [r1, #-1555]	; 0xfffff9ed
 944:	054b0605 	strbeq	r0, [fp, #-1541]	; 0xfffff9fb
 948:	0501060b 	streq	r0, [r1, #-1547]	; 0xfffff9f5
 94c:	05340605 	ldreq	r0, [r4, #-1541]!	; 0xfffff9fb
 950:	0501060f 	streq	r0, [r1, #-1551]	; 0xfffff9f1
 954:	052f0605 	streq	r0, [pc, #-1541]!	; 357 <PORT0_15_Handler+0xb>
 958:	20010610 	andcs	r0, r1, r0, lsl r6
 95c:	06050520 	streq	r0, [r5], -r0, lsr #10
 960:	060e0521 	streq	r0, [lr], -r1, lsr #10
 964:	200a0501 	andcs	r0, sl, r1, lsl #10
 968:	052f1705 	streq	r1, [pc, #-1797]!	; 26b <UARTOVF_Handler+0x3>
 96c:	0a053b0e 	beq	14f5ac <Stack_Size+0x14e5ac>
 970:	06090520 	streq	r0, [r9], -r0, lsr #10
 974:	06170521 	ldreq	r0, [r7], -r1, lsr #10
 978:	1f0e0501 	svcne	0x000e0501
 97c:	05200a05 	streq	r0, [r0, #-2565]!	; 0xfffff5fb
 980:	05300606 	ldreq	r0, [r0, #-1542]!	; 0xfffff9fa
 984:	13051305 	movwne	r1, #21253	; 0x5305
 988:	05050106 	streq	r0, [r5, #-262]	; 0xfffffefa
 98c:	0b054b06 	bleq	1535ac <Stack_Size+0x1525ac>
 990:	05050106 	streq	r0, [r5, #-262]	; 0xfffffefa
 994:	0f053406 	svceq	0x00053406
 998:	052e0106 	streq	r0, [lr, #-262]!	; 0xfffffefa
 99c:	052f0605 	streq	r0, [pc, #-1541]!	; 39f <print_hex+0xb>
 9a0:	05010610 	streq	r0, [r1, #-1552]	; 0xfffff9f0
 9a4:	053d0605 	ldreq	r0, [sp, #-1541]!	; 0xfffff9fb
 9a8:	0501060e 	streq	r0, [r1, #-1550]	; 0xfffff9f2
 9ac:	1705200a 	strne	r2, [r5, -sl]
 9b0:	3b0e052f 	blcc	381e74 <Stack_Size+0x380e74>
 9b4:	05200a05 	streq	r0, [r0, #-2565]!	; 0xfffff5fb
 9b8:	05210609 	streq	r0, [r1, #-1545]!	; 0xfffff9f7
 9bc:	05010617 	streq	r0, [r1, #-1559]	; 0xfffff9e9
 9c0:	0a051f0e 	beq	148600 <Stack_Size+0x147600>
 9c4:	06060520 	streq	r0, [r6], -r0, lsr #10
 9c8:	13050530 	movwne	r0, #21808	; 0x5530
 9cc:	01061305 	tsteq	r6, r5, lsl #6
 9d0:	4b060505 	blmi	181dec <Stack_Size+0x180dec>
 9d4:	01060b05 	tsteq	r6, r5, lsl #22
 9d8:	34060505 	strcc	r0, [r6], #-1285	; 0xfffffafb
 9dc:	06010a05 	streq	r0, [r1], -r5, lsl #20
 9e0:	030b0501 	movweq	r0, #46337	; 0xb501
 9e4:	1b05017a 	blne	140fd4 <Stack_Size+0x13ffd4>
 9e8:	05201703 	streq	r1, [r0, #-1795]!	; 0xfffff8fd
 9ec:	0e053a12 			; <UNDEFINED> instruction: 0x0e053a12
 9f0:	27170520 	ldrcs	r0, [r7, -r0, lsr #10]
 9f4:	05351305 	ldreq	r1, [r5, #-773]!	; 0xfffffcfb
 9f8:	2e6c0318 	mcrcs	3, 3, r0, cr12, cr8, {0}
 9fc:	2e060d05 	cdpcs	13, 0, cr0, cr6, cr5, {0}
 a00:	01061805 	tsteq	r6, r5, lsl #16
 a04:	05341205 	ldreq	r1, [r4, #-517]!	; 0xfffffdfb
 a08:	0d05200e 	stceq	0, cr2, [r5, #-56]	; 0xffffffc8
 a0c:	1b053006 	blne	14ca2c <Stack_Size+0x14ba2c>
 a10:	12050106 	andne	r0, r5, #-2147483647	; 0x80000001
 a14:	200e051e 	andcs	r0, lr, lr, lsl r5
 a18:	33060a05 	movwcc	r0, #27141	; 0x6a05
 a1c:	05140905 	ldreq	r0, [r4, #-2309]	; 0xfffff6fb
 a20:	05010617 	streq	r0, [r1, #-1559]	; 0xfffff9e9
 a24:	05300609 	ldreq	r0, [r0, #-1545]!	; 0xfffff9f7
 a28:	0501060f 	streq	r0, [r1, #-1551]	; 0xfffff9f1
 a2c:	05250609 	streq	r0, [r5, #-1545]!	; 0xfffff9f7
 a30:	05010613 	streq	r0, [r1, #-1555]	; 0xfffff9ed
 a34:	05052e11 	streq	r2, [r5, #-3601]	; 0xfffff1ef
 a38:	20206303 	eorcs	r6, r0, r3, lsl #6
 a3c:	0609052e 	streq	r0, [r9], -lr, lsr #10
 a40:	060c0526 	streq	r0, [ip], -r6, lsr #10
 a44:	060d0501 	streq	r0, [sp], -r1, lsl #10
 a48:	0618052f 	ldreq	r0, [r8], -pc, lsr #10
 a4c:	36120501 	ldrcc	r0, [r2], -r1, lsl #10
 a50:	05200e05 	streq	r0, [r0, #-3589]!	; 0xfffff1fb
 a54:	0533060a 	ldreq	r0, [r3, #-1546]!	; 0xfffff9f6
 a58:	17051409 	strne	r1, [r5, -r9, lsl #8]
 a5c:	09050106 	stmdbeq	r5, {r1, r2, r8}
 a60:	0f053006 	svceq	0x00053006
 a64:	09050106 	stmdbeq	r5, {r1, r2, r8}
 a68:	13052506 	movwne	r2, #21766	; 0x5506
 a6c:	11050106 	tstne	r5, r6, lsl #2
 a70:	0a05202e 	beq	148b30 <Stack_Size+0x147b30>
 a74:	20770306 	rsbscs	r0, r7, r6, lsl #6
 a78:	05140905 	ldreq	r0, [r4, #-2309]	; 0xfffff6fb
 a7c:	05010617 	streq	r0, [r1, #-1559]	; 0xfffff9e9
 a80:	054c0609 	strbeq	r0, [ip, #-1545]	; 0xfffff9f7
 a84:	0501060f 	streq	r0, [r1, #-1551]	; 0xfffff9f1
 a88:	05330609 	ldreq	r0, [r3, #-1545]!	; 0xfffff9f7
 a8c:	05010613 	streq	r0, [r1, #-1555]	; 0xfffff9ed
 a90:	05202e11 	streq	r2, [r0, #-3601]!	; 0xfffff1ef
 a94:	05150605 	ldreq	r0, [r5, #-1541]	; 0xfffff9fb
 a98:	3c010613 	stccc	6, cr0, [r1], {19}
 a9c:	22060505 	andcs	r0, r6, #20971520	; 0x1400000
 aa0:	13060105 	movwne	r0, #24837	; 0x6105
 aa4:	ca064705 	bgt	1926c0 <Stack_Size+0x1916c0>
 aa8:	05050106 	streq	r0, [r5, #-262]	; 0xfffffefa
 aac:	05152106 	ldreq	r2, [r5, #-262]	; 0xfffffefa
 ab0:	0501060f 	streq	r0, [r1, #-1551]	; 0xfffff9f1
 ab4:	052f0605 	streq	r0, [pc, #-1541]!	; 4b7 <print_dec+0xfb>
 ab8:	05010610 	streq	r0, [r1, #-1552]	; 0xfffff9f0
 abc:	053d0605 	ldreq	r0, [sp, #-1541]!	; 0xfffff9fb
 ac0:	0501060e 	streq	r0, [r1, #-1550]	; 0xfffff9f2
 ac4:	2f05200a 	svccs	0x0005200a
 ac8:	01040200 	mrseq	r0, R12_usr
 acc:	0e052006 	cdpeq	0, 0, cr2, cr5, cr6, {0}
 ad0:	01040200 	mrseq	r0, R12_usr
 ad4:	0a050106 	beq	140ef4 <Stack_Size+0x13fef4>
 ad8:	01040200 	mrseq	r0, R12_usr
 adc:	06050520 	streq	r0, [r5], -r0, lsr #10
 ae0:	060b052f 	streq	r0, [fp], -pc, lsr #10
 ae4:	06050501 	streq	r0, [r5], -r1, lsl #10
 ae8:	060f0534 			; <UNDEFINED> instruction: 0x060f0534
 aec:	06050501 	streq	r0, [r5], -r1, lsl #10
 af0:	0610052f 	ldreq	r0, [r0], -pc, lsr #10
 af4:	06050501 	streq	r0, [r5], -r1, lsl #10
 af8:	060d053d 			; <UNDEFINED> instruction: 0x060d053d
 afc:	200a0501 	andcs	r0, sl, r1, lsl #10
 b00:	02002805 	andeq	r2, r0, #327680	; 0x50000
 b04:	20060104 	andcs	r0, r6, r4, lsl #2
 b08:	02000d05 	andeq	r0, r0, #320	; 0x140
 b0c:	01060104 	tsteq	r6, r4, lsl #2
 b10:	02000a05 	andeq	r0, r0, #20480	; 0x5000
 b14:	05200104 	streq	r0, [r0, #-260]!	; 0xfffffefc
 b18:	052f0605 	streq	r0, [pc, #-1541]!	; 51b <print_dec+0x15f>
 b1c:	0501060b 	streq	r0, [r1, #-1547]	; 0xfffff9f5
 b20:	05340605 	ldreq	r0, [r4, #-1541]!	; 0xfffff9fb
 b24:	2e01060f 	cfmadd32cs	mvax0, mvfx0, mvfx1, mvfx15
 b28:	2f060505 	svccs	0x00060505
 b2c:	01061005 	tsteq	r6, r5
 b30:	3d060505 	cfstr32cc	mvfx0, [r6, #-20]	; 0xffffffec
 b34:	01060e05 	tsteq	r6, r5, lsl #28
 b38:	05200a05 	streq	r0, [r0, #-2565]!	; 0xfffff5fb
 b3c:	0402002f 	streq	r0, [r2], #-47	; 0xffffffd1
 b40:	05200601 	streq	r0, [r0, #-1537]!	; 0xfffff9ff
 b44:	0402000e 	streq	r0, [r2], #-14
 b48:	05010601 	streq	r0, [r1, #-1537]	; 0xfffff9ff
 b4c:	0402000a 	streq	r0, [r2], #-10
 b50:	05052001 	streq	r2, [r5, #-1]
 b54:	0b052f06 	bleq	14c774 <Stack_Size+0x14b774>
 b58:	05050106 	streq	r0, [r5, #-262]	; 0xfffffefa
 b5c:	10053506 	andne	r3, r5, r6, lsl #10
 b60:	05050106 	streq	r0, [r5, #-262]	; 0xfffffefa
 b64:	0d053e06 	stceq	14, cr3, [r5, #-24]	; 0xffffffe8
 b68:	0a050106 	beq	140f88 <Stack_Size+0x13ff88>
 b6c:	00280520 	eoreq	r0, r8, r0, lsr #10
 b70:	06010402 	streq	r0, [r1], -r2, lsl #8
 b74:	000d0520 	andeq	r0, sp, r0, lsr #10
 b78:	06010402 	streq	r0, [r1], -r2, lsl #8
 b7c:	000a0501 	andeq	r0, sl, r1, lsl #10
 b80:	20010402 	andcs	r0, r1, r2, lsl #8
 b84:	30060505 	andcc	r0, r6, r5, lsl #10
 b88:	01060b05 	tsteq	r6, r5, lsl #22
 b8c:	31060905 	tstcc	r6, r5, lsl #18
 b90:	01061005 	tsteq	r6, r5
 b94:	023d0105 	eorseq	r0, sp, #1073741825	; 0x40000001
 b98:	0101000a 	tsteq	r1, sl
 b9c:	0000011c 	andeq	r0, r0, ip, lsl r1
 ba0:	00c30003 	sbceq	r0, r3, r3
 ba4:	01020000 	mrseq	r0, (UNDEF: 2)
 ba8:	000d0efb 	strdeq	r0, [sp], -fp
 bac:	01010101 	tsteq	r1, r1, lsl #2
 bb0:	01000000 	mrseq	r0, (UNDEF: 0)
 bb4:	2e010000 	cdpcs	0, 0, cr0, cr1, cr0, {0}
 bb8:	77732f2e 	ldrbvc	r2, [r3, -lr, lsr #30]!
 bbc:	002e2e00 	eoreq	r2, lr, r0, lsl #28
 bc0:	7273752f 	rsbsvc	r7, r3, #197132288	; 0xbc00000
 bc4:	636f6c2f 	cmnvs	pc, #12032	; 0x2f00
 bc8:	672f6c61 	strvs	r6, [pc, -r1, ror #24]!
 bcc:	615f6363 	cmpvs	pc, r3, ror #6
 bd0:	672f6d72 			; <UNDEFINED> instruction: 0x672f6d72
 bd4:	612d6363 			; <UNDEFINED> instruction: 0x612d6363
 bd8:	6e2d6d72 	mcrvs	13, 1, r6, cr13, cr2, {3}
 bdc:	2d656e6f 	stclcs	14, cr6, [r5, #-444]!	; 0xfffffe44
 be0:	69626165 	stmdbvs	r2!, {r0, r2, r5, r6, r8, sp, lr}^
 be4:	322d382d 	eorcc	r3, sp, #2949120	; 0x2d0000
 be8:	2d393130 	ldfcss	f3, [r9, #-192]!	; 0xffffff40
 bec:	752d3371 	strvc	r3, [sp, #-881]!	; 0xfffffc8f
 bf0:	74616470 	strbtvc	r6, [r1], #-1136	; 0xfffffb90
 bf4:	696c2f65 	stmdbvs	ip!, {r0, r2, r5, r6, r8, r9, sl, fp, sp}^
 bf8:	63672f62 	cmnvs	r7, #392	; 0x188
 bfc:	72612f63 	rsbvc	r2, r1, #396	; 0x18c
 c00:	6f6e2d6d 	svcvs	0x006e2d6d
 c04:	652d656e 	strvs	r6, [sp, #-1390]!	; 0xfffffa92
 c08:	2f696261 	svccs	0x00696261
 c0c:	2e332e38 	mrccs	14, 1, r2, cr3, cr8, {1}
 c10:	6e692f31 	mcrvs	15, 3, r2, cr9, cr1, {1}
 c14:	64756c63 	ldrbtvs	r6, [r5], #-3171	; 0xfffff39d
 c18:	69000065 	stmdbvs	r0, {r0, r2, r5, r6}
 c1c:	632e6332 			; <UNDEFINED> instruction: 0x632e6332
 c20:	00000000 	andeq	r0, r0, r0
 c24:	636b6c63 	cmnvs	fp, #25344	; 0x6300
 c28:	2e6c7274 	mcrcs	2, 3, r7, cr12, cr4, {3}
 c2c:	00010068 	andeq	r0, r1, r8, rrx
 c30:	70617200 	rsbvc	r7, r1, r0, lsl #4
 c34:	2e726f74 	mrccs	15, 3, r6, cr2, cr4, {3}
 c38:	00020068 	andeq	r0, r2, r8, rrx
 c3c:	69706700 	ldmdbvs	r0!, {r8, r9, sl, sp, lr}^
 c40:	72645f6f 	rsbvc	r5, r4, #444	; 0x1bc
 c44:	00682e76 	rsbeq	r2, r8, r6, ror lr
 c48:	69000001 	stmdbvs	r0, {r0}
 c4c:	645f6332 	ldrbvs	r6, [pc], #-818	; c54 <_etext+0x2f4>
 c50:	682e7672 	stmdavs	lr!, {r1, r4, r5, r6, r9, sl, ip, sp, lr}
 c54:	00000100 	andeq	r0, r0, r0, lsl #2
 c58:	69647473 	stmdbvs	r4!, {r0, r1, r4, r5, r6, sl, ip, sp, lr}^
 c5c:	672d746e 	strvs	r7, [sp, -lr, ror #8]!
 c60:	682e6363 	stmdavs	lr!, {r0, r1, r5, r6, r8, r9, sp, lr}
 c64:	00000300 	andeq	r0, r0, r0, lsl #6
 c68:	00010500 	andeq	r0, r1, r0, lsl #10
 c6c:	08a40205 	stmiaeq	r4!, {r0, r2, r9}
 c70:	05190000 	ldreq	r0, [r9, #-0]
 c74:	05133002 	ldreq	r3, [r3, #-2]
 c78:	02051305 	andeq	r1, r5, #335544320	; 0x14000000
 c7c:	3d050517 	cfstr32cc	mvfx0, [r5, #-92]	; 0xffffffa4
 c80:	0510063e 	ldreq	r0, [r0, #-1598]	; 0xfffff9c2
 c84:	04020020 	streq	r0, [r2], #-32	; 0xffffffe0
 c88:	00220603 	eoreq	r0, r2, r3, lsl #12
 c8c:	06030402 	streq	r0, [r3], -r2, lsl #8
 c90:	00050501 	andeq	r0, r5, r1, lsl #10
 c94:	20030402 	andcs	r0, r3, r2, lsl #8
 c98:	053e3106 	ldreq	r3, [lr, #-262]!	; 0xfffffefa
 c9c:	0905170d 	stmdbeq	r5, {r0, r2, r3, r8, r9, sl, ip}
 ca0:	3d581103 	ldfcce	f1, [r8, #-12]
 ca4:	02001106 	andeq	r1, r0, #-2147483647	; 0x80000001
 ca8:	23060304 	movwcs	r0, #25348	; 0x6304
 cac:	03040200 	movweq	r0, #16896	; 0x4200
 cb0:	02000106 	andeq	r0, r0, #-2147483647	; 0x80000001
 cb4:	021e0304 	andseq	r0, lr, #4, 6	; 0x10000000
 cb8:	01010005 	tsteq	r1, r5

Disassembly of section .debug_str:

00000000 <.debug_str>:
   0:	434b4c43 	movtmi	r4, #48195	; 0xbc43
   4:	5f4c5254 	svcpl	0x004c5254
   8:	434c4c50 	movtmi	r4, #52304	; 0xcc50
   c:	72700052 	rsbsvc	r0, r0, #82, 0	; 0x52
  10:	00746e69 	rsbseq	r6, r4, r9, ror #28
  14:	20554e47 	subscs	r4, r5, r7, asr #28
  18:	20373143 	eorscs	r3, r7, r3, asr #2
  1c:	2e332e38 	mrccs	14, 1, r2, cr3, cr8, {1}
  20:	30322031 	eorscc	r2, r2, r1, lsr r0
  24:	37303931 			; <UNDEFINED> instruction: 0x37303931
  28:	28203330 	stmdacs	r0!, {r4, r5, r8, r9, ip, sp}
  2c:	656c6572 	strbvs	r6, [ip, #-1394]!	; 0xfffffa8e
  30:	29657361 	stmdbcs	r5!, {r0, r5, r6, r8, r9, ip, sp, lr}^
  34:	63675b20 	cmnvs	r7, #32, 22	; 0x8000
  38:	2d382d63 	ldccs	13, cr2, [r8, #-396]!	; 0xfffffe74
  3c:	6e617262 	cdpvs	2, 6, cr7, cr1, cr2, {3}
  40:	72206863 	eorvc	r6, r0, #6488064	; 0x630000
  44:	73697665 	cmnvc	r9, #105906176	; 0x6500000
  48:	206e6f69 	rsbcs	r6, lr, r9, ror #30
  4c:	30333732 	eorscc	r3, r3, r2, lsr r7
  50:	205d3732 	subscs	r3, sp, r2, lsr r7
  54:	68746d2d 	ldmdavs	r4!, {r0, r2, r3, r5, r8, sl, fp, sp, lr}^
  58:	20626d75 	rsbcs	r6, r2, r5, ror sp
  5c:	70636d2d 	rsbvc	r6, r3, sp, lsr #26
  60:	6f633d75 	svcvs	0x00633d75
  64:	78657472 	stmdavc	r5!, {r1, r4, r5, r6, sl, ip, sp, lr}^
  68:	20306d2d 	eorscs	r6, r0, sp, lsr #26
  6c:	6c666d2d 	stclvs	13, cr6, [r6], #-180	; 0xffffff4c
  70:	2d74616f 	ldfcse	f6, [r4, #-444]!	; 0xfffffe44
  74:	3d696261 	sfmcc	f6, 2, [r9, #-388]!	; 0xfffffe7c
  78:	74666f73 	strbtvc	r6, [r6], #-3955	; 0xfffff08d
  7c:	616d2d20 	cmnvs	sp, r0, lsr #26
  80:	3d686372 	stclcc	3, cr6, [r8, #-456]!	; 0xfffffe38
  84:	766d7261 	strbtvc	r7, [sp], -r1, ror #4
  88:	6d2d7336 	stcvs	3, cr7, [sp, #-216]!	; 0xffffff28
  8c:	20672d20 	rsbcs	r2, r7, r0, lsr #26
  90:	20314f2d 	eorscs	r4, r1, sp, lsr #30
  94:	7266662d 	rsbvc	r6, r6, #47185920	; 0x2d00000
  98:	74736565 	ldrbtvc	r6, [r3], #-1381	; 0xfffffa9b
  9c:	69646e61 	stmdbvs	r4!, {r0, r5, r6, r9, sl, fp, sp, lr}^
  a0:	2e00676e 	cdpcs	7, 0, cr6, cr0, cr14, {3}
  a4:	61722f2e 	cmnvs	r2, lr, lsr #30
  a8:	726f7470 	rsbvc	r7, pc, #112, 8	; 0x70000000
  ac:	2e6f695f 			; <UNDEFINED> instruction: 0x2e6f695f
  b0:	72730063 	rsbsvc	r0, r3, #99, 0	; 0x63
  b4:	75006d61 	strvc	r6, [r0, #-3425]	; 0xfffff29f
  b8:	6769736e 	strbvs	r7, [r9, -lr, ror #6]!
  bc:	2064656e 	rsbcs	r6, r4, lr, ror #10
  c0:	72616863 	rsbvc	r6, r1, #6488064	; 0x630000
  c4:	6f687300 	svcvs	0x00687300
  c8:	75207472 	strvc	r7, [r0, #-1138]!	; 0xfffffb8e
  cc:	6769736e 	strbvs	r7, [r9, -lr, ror #6]!
  d0:	2064656e 	rsbcs	r6, r4, lr, ror #10
  d4:	00746e69 	rsbseq	r6, r4, r9, ror #28
  d8:	6e697270 	mcrvs	2, 3, r7, cr9, cr0, {3}
  dc:	65685f74 	strbvs	r5, [r8, #-3956]!	; 0xfffff08c
  e0:	75700078 	ldrbvc	r0, [r0, #-120]!	; 0xffffff88
  e4:	61686374 	smcvs	34356	; 0x8634
  e8:	4c430072 	mcrrmi	0, 7, r0, r3, cr2
  ec:	5254434b 	subspl	r4, r4, #738197505	; 0x2c000001
  f0:	4c435f4c 	mcrrmi	15, 4, r5, r3, cr12
  f4:	0052434b 	subseq	r4, r2, fp, asr #6
  f8:	6e697270 	mcrvs	2, 3, r7, cr9, cr0, {3}
  fc:	69645f74 	stmdbvs	r4!, {r2, r4, r5, r6, r8, r9, sl, fp, ip, lr}^
 100:	00746967 	rsbseq	r6, r4, r7, ror #18
 104:	676e6f6c 	strbvs	r6, [lr, -ip, ror #30]!
 108:	6e6f6c20 	cdpvs	12, 6, cr6, cr15, cr0, {1}
 10c:	6e752067 	cdpvs	0, 7, cr2, cr5, cr7, {3}
 110:	6e676973 			; <UNDEFINED> instruction: 0x6e676973
 114:	69206465 	stmdbvs	r0!, {r0, r2, r5, r6, sl, sp, lr}
 118:	6700746e 	strvs	r7, [r0, -lr, ror #8]
 11c:	68637465 	stmdavs	r3!, {r0, r2, r5, r6, sl, ip, sp, lr}^
 120:	6c007261 	sfmvs	f7, 4, [r0], {97}	; 0x61
 124:	20676e6f 	rsbcs	r6, r7, pc, ror #28
 128:	676e6f6c 	strbvs	r6, [lr, -ip, ror #30]!
 12c:	746e6920 	strbtvc	r6, [lr], #-2336	; 0xfffff6e0
 130:	646d6300 	strbtvs	r6, [sp], #-768	; 0xfffffd00
 134:	6863655f 	stmdavs	r3!, {r0, r1, r2, r3, r4, r6, r8, sl, sp, lr}^
 138:	6964006f 	stmdbvs	r4!, {r0, r1, r2, r3, r5, r6}^
 13c:	73746967 	cmnvc	r4, #1687552	; 0x19c000
 140:	6f687300 	svcvs	0x00687300
 144:	69207472 	stmdbvs	r0!, {r1, r4, r5, r6, sl, ip, sp, lr}
 148:	7000746e 	andvc	r7, r0, lr, ror #8
 14c:	746e6972 	strbtvc	r6, [lr], #-2418	; 0xfffff68e
 150:	6365645f 	cmnvs	r5, #1593835520	; 0x5f000000
 154:	6e697500 	cdpvs	5, 6, cr7, cr9, cr0, {0}
 158:	5f323374 	svcpl	0x00323374
 15c:	4c430074 	mcrrmi	0, 7, r0, r3, cr4
 160:	5254434b 	subspl	r4, r4, #738197505	; 0x2c000001
 164:	4c505f4c 	mrrcmi	15, 4, r5, r0, cr12
 168:	0052544c 	subseq	r5, r2, ip, asr #8
 16c:	6573552f 	ldrbvs	r5, [r3, #-1327]!	; 0xfffffad1
 170:	6a2f7372 	bvs	bdcf40 <Stack_Size+0xbdbf40>
 174:	64666665 	strbtvs	r6, [r6], #-1637	; 0xfffff99b
 178:	72502f69 	subsvc	r2, r0, #420	; 0x1a4
 17c:	63656a6f 	cmnvs	r5, #454656	; 0x6f000
 180:	722f7374 	eorvc	r7, pc, #116, 6	; 0xd0000001
 184:	6f747061 	svcvs	0x00747061
 188:	69662f72 	stmdbvs	r6!, {r1, r4, r5, r6, r8, r9, sl, fp, sp}^
 18c:	61776d72 	cmnvs	r7, r2, ror sp
 190:	692f6572 	stmdbvs	pc!, {r1, r4, r5, r6, r8, sl, sp, lr}	; <UNPREDICTABLE>
 194:	67006332 	smladxvs	r0, r2, r3, r6
 198:	5f6f6970 	svcpl	0x006f6970
 19c:	74697277 	strbtvc	r7, [r9], #-631	; 0xfffffd89
 1a0:	70670065 	rsbvc	r0, r7, r5, rrx
 1a4:	725f6f69 	subsvc	r6, pc, #420	; 0x1a4
 1a8:	00646165 	rsbeq	r6, r4, r5, ror #2
 1ac:	6f697067 	svcvs	0x00697067
 1b0:	7465735f 	strbtvc	r7, [r5], #-863	; 0xfffffca1
 1b4:	7269645f 	rsbvc	r6, r9, #1593835520	; 0x5f000000
 1b8:	49504700 	ldmdbmi	r0, {r8, r9, sl, lr}^
 1bc:	49445f4f 	stmdbmi	r4, {r0, r1, r2, r3, r6, r8, r9, sl, fp, ip, lr}^
 1c0:	50470052 	subpl	r0, r7, r2, asr r0
 1c4:	445f4f49 	ldrbmi	r4, [pc], #-3913	; 1cc <SysTick_Handler>
 1c8:	00415441 	subeq	r5, r1, r1, asr #8
 1cc:	732f2e2e 			; <UNDEFINED> instruction: 0x732f2e2e
 1d0:	70672f77 	rsbvc	r2, r7, r7, ror pc
 1d4:	645f6f69 	ldrbvs	r6, [pc], #-3945	; 1dc <UARTRX0_Handler+0x4>
 1d8:	632e7672 			; <UNDEFINED> instruction: 0x632e7672
 1dc:	61647300 	cmnvs	r4, r0, lsl #6
 1e0:	49006174 	stmdbmi	r0, {r2, r4, r5, r6, r8, sp, lr}
 1e4:	505f4332 	subspl	r4, pc, r2, lsr r3	; <UNPREDICTABLE>
 1e8:	4c5f4552 	cfldr64mi	mvdx4, [pc], {82}	; 0x52
 1ec:	3249004f 	subcc	r0, r9, #79, 0	; 0x4f
 1f0:	54435f43 	strbpl	r5, [r3], #-3907	; 0xfffff0bd
 1f4:	69004c52 	stmdbvs	r0, {r1, r4, r6, sl, fp, lr}
 1f8:	725f6332 	subsvc	r6, pc, #-939524096	; 0xc8000000
 1fc:	5f646165 	svcpl	0x00646165
 200:	65747962 	ldrbvs	r7, [r4, #-2402]!	; 0xfffff69e
 204:	43324900 	teqmi	r2, #0, 18
 208:	4154535f 	cmpmi	r4, pc, asr r3
 20c:	32690054 	rsbcc	r0, r9, #84, 0	; 0x54
 210:	65725f63 	ldrbvs	r5, [r2, #-3939]!	; 0xfffff09d
 214:	625f6461 	subsvs	r6, pc, #1627389952	; 0x61000000
 218:	73657479 	cmnvc	r5, #2030043136	; 0x79000000
 21c:	43324900 	teqmi	r2, #0, 18
 220:	0058525f 	subseq	r5, r8, pc, asr r2
 224:	64646177 	strbtvs	r6, [r4], #-375	; 0xfffffe89
 228:	32490072 	subcc	r0, r9, #114, 0	; 0x72
 22c:	4d435f43 	stclmi	15, cr5, [r3, #-268]	; 0xfffffef4
 230:	32490044 	subcc	r0, r9, #68, 0	; 0x44
 234:	52505f43 	subspl	r5, r0, #268	; 0x10c
 238:	49485f45 	stmdbmi	r8, {r0, r2, r6, r8, r9, sl, fp, ip, lr}^
 23c:	63326900 	teqvs	r2, #0, 18
 240:	696e695f 	stmdbvs	lr!, {r0, r1, r2, r3, r4, r6, r8, fp, sp, lr}^
 244:	32490074 	subcc	r0, r9, #116, 0	; 0x74
 248:	58545f43 	ldmdapl	r4, {r0, r1, r6, r8, r9, sl, fp, ip, lr}^
 24c:	2f2e2e00 	svccs	0x002e2e00
 250:	692f7773 	stmdbvs	pc!, {r0, r1, r4, r5, r6, r8, r9, sl, ip, sp, lr}	; <UNPREDICTABLE>
 254:	645f6332 	ldrbvs	r6, [pc], #-818	; 25c <SPI_ALL_Handler>
 258:	632e7672 			; <UNDEFINED> instruction: 0x632e7672
 25c:	64617300 	strbtvs	r7, [r1], #-768	; 0xfffffd00
 260:	69007264 	stmdbvs	r0, {r2, r5, r6, r9, ip, sp, lr}
 264:	735f6332 	cmpvc	pc, #-939524096	; 0xc8000000
 268:	5f646e65 	svcpl	0x00646e65
 26c:	65747962 	ldrbvs	r7, [r4, #-2402]!	; 0xfffff69e
 270:	63326900 	teqvs	r2, #0, 18
 274:	6d00632e 	stcvs	3, cr6, [r0, #-184]	; 0xffffff48
 278:	006e6961 	rsbeq	r6, lr, r1, ror #18

Disassembly of section .debug_frame:

00000000 <.debug_frame>:
   0:	0000000c 	andeq	r0, r0, ip
   4:	ffffffff 			; <UNDEFINED> instruction: 0xffffffff
   8:	7c020001 	stcvc	0, cr0, [r2], {1}
   c:	000d0c0e 	andeq	r0, sp, lr, lsl #24
  10:	0000000c 	andeq	r0, r0, ip
  14:	00000000 	andeq	r0, r0, r0
  18:	00000370 	andeq	r0, r0, r0, ror r3
  1c:	0000000c 	andeq	r0, r0, ip
  20:	0000000c 	andeq	r0, r0, ip
  24:	00000000 	andeq	r0, r0, r0
  28:	0000037c 	andeq	r0, r0, ip, ror r3
  2c:	00000018 	andeq	r0, r0, r8, lsl r0
  30:	00000018 	andeq	r0, r0, r8, lsl r0
  34:	00000000 	andeq	r0, r0, r0
  38:	00000394 	muleq	r0, r4, r3
  3c:	00000028 	andeq	r0, r0, r8, lsr #32
  40:	840c0e41 	strhi	r0, [ip], #-3649	; 0xfffff1bf
  44:	8e028503 	cfsh32hi	mvfx8, mvfx2, #3
  48:	00000001 	andeq	r0, r0, r1
  4c:	00000014 	andeq	r0, r0, r4, lsl r0
  50:	00000000 	andeq	r0, r0, r0
  54:	000003bc 			; <UNDEFINED> instruction: 0x000003bc
  58:	000001fc 	strdeq	r0, [r0], -ip
  5c:	84080e41 	strhi	r0, [r8], #-3649	; 0xfffff1bf
  60:	00018e02 	andeq	r8, r1, r2, lsl #28
  64:	0000000c 	andeq	r0, r0, ip
  68:	00000000 	andeq	r0, r0, r0
  6c:	000005b8 			; <UNDEFINED> instruction: 0x000005b8
  70:	00000088 	andeq	r0, r0, r8, lsl #1
  74:	0000000c 	andeq	r0, r0, ip
  78:	00000000 	andeq	r0, r0, r0
  7c:	00000640 	andeq	r0, r0, r0, asr #12
  80:	0000000c 	andeq	r0, r0, ip
  84:	00000018 	andeq	r0, r0, r8, lsl r0
  88:	00000000 	andeq	r0, r0, r0
  8c:	0000064c 	andeq	r0, r0, ip, asr #12
  90:	00000034 	andeq	r0, r0, r4, lsr r0
  94:	84100e41 	ldrhi	r0, [r0], #-3649	; 0xfffff1bf
  98:	86038504 	strhi	r8, [r3], -r4, lsl #10
  9c:	00018e02 	andeq	r8, r1, r2, lsl #28
  a0:	0000000c 	andeq	r0, r0, ip
  a4:	ffffffff 			; <UNDEFINED> instruction: 0xffffffff
  a8:	7c020001 	stcvc	0, cr0, [r2], {1}
  ac:	000d0c0e 	andeq	r0, sp, lr, lsl #24
  b0:	0000000c 	andeq	r0, r0, ip
  b4:	000000a0 	andeq	r0, r0, r0, lsr #1
  b8:	00000680 	andeq	r0, r0, r0, lsl #13
  bc:	0000000c 	andeq	r0, r0, ip
  c0:	0000000c 	andeq	r0, r0, ip
  c4:	000000a0 	andeq	r0, r0, r0, lsr #1
  c8:	0000068c 	andeq	r0, r0, ip, lsl #13
  cc:	00000008 	andeq	r0, r0, r8
  d0:	0000000c 	andeq	r0, r0, ip
  d4:	000000a0 	andeq	r0, r0, r0, lsr #1
  d8:	00000694 	muleq	r0, r4, r6
  dc:	00000008 	andeq	r0, r0, r8
  e0:	0000000c 	andeq	r0, r0, ip
  e4:	ffffffff 			; <UNDEFINED> instruction: 0xffffffff
  e8:	7c020001 	stcvc	0, cr0, [r2], {1}
  ec:	000d0c0e 	andeq	r0, sp, lr, lsl #24
  f0:	0000000c 	andeq	r0, r0, ip
  f4:	000000e0 	andeq	r0, r0, r0, ror #1
  f8:	0000069c 	muleq	r0, ip, r6
  fc:	00000020 	andeq	r0, r0, r0, lsr #32
 100:	0000000c 	andeq	r0, r0, ip
 104:	000000e0 	andeq	r0, r0, r0, ror #1
 108:	000006bc 			; <UNDEFINED> instruction: 0x000006bc
 10c:	00000048 	andeq	r0, r0, r8, asr #32
 110:	00000020 	andeq	r0, r0, r0, lsr #32
 114:	000000e0 	andeq	r0, r0, r0, ror #1
 118:	00000704 	andeq	r0, r0, r4, lsl #14
 11c:	00000124 	andeq	r0, r0, r4, lsr #2
 120:	84140e41 	ldrhi	r0, [r4], #-3649	; 0xfffff1bf
 124:	86048505 	strhi	r8, [r4], -r5, lsl #10
 128:	8e028703 	cdphi	7, 0, cr8, cr2, cr3, {0}
 12c:	180e4201 	stmdane	lr, {r0, r9, lr}
 130:	00000688 	andeq	r0, r0, r8, lsl #13
 134:	00000014 	andeq	r0, r0, r4, lsl r0
 138:	000000e0 	andeq	r0, r0, r0, ror #1
 13c:	00000828 	andeq	r0, r0, r8, lsr #16
 140:	0000007c 	andeq	r0, r0, ip, ror r0
 144:	84080e41 	strhi	r0, [r8], #-3649	; 0xfffff1bf
 148:	00018e02 	andeq	r8, r1, r2, lsl #28
 14c:	0000000c 	andeq	r0, r0, ip
 150:	ffffffff 			; <UNDEFINED> instruction: 0xffffffff
 154:	7c020001 	stcvc	0, cr0, [r2], {1}
 158:	000d0c0e 	andeq	r0, sp, lr, lsl #24
 15c:	00000014 	andeq	r0, r0, r4, lsl r0
 160:	0000014c 	andeq	r0, r0, ip, asr #2
 164:	000008a4 	andeq	r0, r0, r4, lsr #17
 168:	0000003c 	andeq	r0, r0, ip, lsr r0
 16c:	8e040e41 	cdphi	14, 0, cr0, cr4, cr1, {2}
 170:	100e4101 	andne	r4, lr, r1, lsl #2
